; Listing generated by Microsoft (R) Optimizing Compiler Version 18.00.31101.0 

include listing.inc

INCLUDELIB OLDNAMES

PUBLIC	??_C@_05IOMEMJEC@count?$AA@			; `string'
PUBLIC	??_C@_0BG@DILIGMMN@output?1prac?1count?4itx?$AA@ ; `string'
PUBLIC	??_C@_0BH@EAMCBOFL@output?1debug?1count?4itx?$AA@ ; `string'
PUBLIC	??_C@_0BD@GOPMHKAF@output?1debug?1f?4itx?$AA@	; `string'
PUBLIC	??_C@_0BE@KCMMJAFM@output?1debug?1df?4itx?$AA@	; `string'
PUBLIC	??_C@_02CJKHOMHP@vv?$AA@			; `string'
PUBLIC	??_C@_0BD@GNCKHIJO@output?1debug?1v?4itx?$AA@	; `string'
PUBLIC	??_C@_02ECEBANDL@Af?$AA@			; `string'
PUBLIC	??_C@_0BE@DPEJIGGH@output?1debug?1Af?4itx?$AA@	; `string'
PUBLIC	??_C@_0BE@KBBKJCMH@output?1debug?1dv?4itx?$AA@	; `string'
PUBLIC	??_C@_03BFACDLAE@dff?$AA@			; `string'
PUBLIC	??_C@_0BF@CHCIFIMP@output?1debug?1dff?4itx?$AA@	; `string'
PUBLIC	??_C@_0HC@FBBJGPCH@aliasing?5detected?5during?5transpo@ ; `string'
PUBLIC	??_C@_1LE@ODIDILMJ@?$AAc?$AA?3?$AA?2?$AAp?$AAr?$AAo?$AAg?$AAr?$AAa?$AAm?$AA?5?$AAf?$AAi?$AAl?$AAe?$AAs?$AA?5?$AA?$CI?$AAx?$AA8?$AA6?$AA?$CJ?$AA?2?$AAm?$AAi?$AAc?$AAr?$AAo?$AAs?$AAo?$AAf?$AAt@ ; `string'
PUBLIC	??_C@_1CCG@OOFKGNBC@?$AA?$CI?$AA?$CB?$AAc?$AAh?$AAe?$AAc?$AAk?$AA_?$AAt?$AAr?$AAa?$AAn?$AAs?$AAp?$AAo?$AAs?$AAe?$AA_?$AAa?$AAl?$AAi?$AAa?$AAs?$AAi?$AAn?$AAg?$AA_?$AAr?$AAu?$AAn?$AA_?$AAt@ ; `string'
;	COMDAT ??_C@_1CCG@OOFKGNBC@?$AA?$CI?$AA?$CB?$AAc?$AAh?$AAe?$AAc?$AAk?$AA_?$AAt?$AAr?$AAa?$AAn?$AAs?$AAp?$AAo?$AAs?$AAe?$AA_?$AAa?$AAl?$AAi?$AAa?$AAs?$AAi?$AAn?$AAg?$AA_?$AAr?$AAu?$AAn?$AA_?$AAt@
CONST	SEGMENT
??_C@_1CCG@OOFKGNBC@?$AA?$CI?$AA?$CB?$AAc?$AAh?$AAe?$AAc?$AAk?$AA_?$AAt?$AAr?$AAa?$AAn?$AAs?$AAp?$AAo?$AAs?$AAe?$AA_?$AAa?$AAl?$AAi?$AAa?$AAs?$AAi?$AAn?$AAg?$AA_?$AAr?$AAu?$AAn?$AA_?$AAt@ DB '('
	DB	00H, '!', 00H, 'c', 00H, 'h', 00H, 'e', 00H, 'c', 00H, 'k', 00H
	DB	'_', 00H, 't', 00H, 'r', 00H, 'a', 00H, 'n', 00H, 's', 00H, 'p'
	DB	00H, 'o', 00H, 's', 00H, 'e', 00H, '_', 00H, 'a', 00H, 'l', 00H
	DB	'i', 00H, 'a', 00H, 's', 00H, 'i', 00H, 'n', 00H, 'g', 00H, '_'
	DB	00H, 'r', 00H, 'u', 00H, 'n', 00H, '_', 00H, 't', 00H, 'i', 00H
	DB	'm', 00H, 'e', 00H, '_', 00H, 's', 00H, 'e', 00H, 'l', 00H, 'e'
	DB	00H, 'c', 00H, 't', 00H, 'o', 00H, 'r', 00H, ' ', 00H, '<', 00H
	DB	't', 00H, 'y', 00H, 'p', 00H, 'e', 00H, 'n', 00H, 'a', 00H, 'm'
	DB	00H, 'e', 00H, ' ', 00H, 'D', 00H, 'e', 00H, 'r', 00H, 'i', 00H
	DB	'v', 00H, 'e', 00H, 'd', 00H, ':', 00H, ':', 00H, 'S', 00H, 'c'
	DB	00H, 'a', 00H, 'l', 00H, 'a', 00H, 'r', 00H, ',', 00H, 'b', 00H
	DB	'l', 00H, 'a', 00H, 's', 00H, '_', 00H, 't', 00H, 'r', 00H, 'a'
	DB	00H, 'i', 00H, 't', 00H, 's', 00H, '<', 00H, 'D', 00H, 'e', 00H
	DB	'r', 00H, 'i', 00H, 'v', 00H, 'e', 00H, 'd', 00H, '>', 00H, ':'
	DB	00H, ':', 00H, 'I', 00H, 's', 00H, 'T', 00H, 'r', 00H, 'a', 00H
	DB	'n', 00H, 's', 00H, 'p', 00H, 'o', 00H, 's', 00H, 'e', 00H, 'd'
	DB	00H, ',', 00H, 'O', 00H, 't', 00H, 'h', 00H, 'e', 00H, 'r', 00H
	DB	'D', 00H, 'e', 00H, 'r', 00H, 'i', 00H, 'v', 00H, 'e', 00H, 'd'
	DB	00H, '>', 00H, ' ', 00H, ':', 00H, ':', 00H, 'r', 00H, 'u', 00H
	DB	'n', 00H, '(', 00H, 'e', 00H, 'x', 00H, 't', 00H, 'r', 00H, 'a'
	DB	00H, 'c', 00H, 't', 00H, '_', 00H, 'd', 00H, 'a', 00H, 't', 00H
	DB	'a', 00H, '(', 00H, 'd', 00H, 's', 00H, 't', 00H, ')', 00H, ','
	DB	00H, ' ', 00H, 'o', 00H, 't', 00H, 'h', 00H, 'e', 00H, 'r', 00H
	DB	')', 00H, ')', 00H, ' ', 00H, '&', 00H, '&', 00H, ' ', 00H, '"'
	DB	00H, 'a', 00H, 'l', 00H, 'i', 00H, 'a', 00H, 's', 00H, 'i', 00H
	DB	'n', 00H, 'g', 00H, ' ', 00H, 'd', 00H, 'e', 00H, 't', 00H, 'e'
	DB	00H, 'c', 00H, 't', 00H, 'e', 00H, 'd', 00H, ' ', 00H, 'd', 00H
	DB	'u', 00H, 'r', 00H, 'i', 00H, 'n', 00H, 'g', 00H, ' ', 00H, 't'
	DB	00H, 'r', 00H, 'a', 00H, 'n', 00H, 's', 00H, 'p', 00H, 'o', 00H
	DB	's', 00H, 'i', 00H, 't', 00H, 'i', 00H, 'o', 00H, 'n', 00H, ','
	DB	00H, ' ', 00H, 'u', 00H, 's', 00H, 'e', 00H, ' ', 00H, 't', 00H
	DB	'r', 00H, 'a', 00H, 'n', 00H, 's', 00H, 'p', 00H, 'o', 00H, 's'
	DB	00H, 'e', 00H, 'I', 00H, 'n', 00H, 'P', 00H, 'l', 00H, 'a', 00H
	DB	'c', 00H, 'e', 00H, '(', 00H, ')', 00H, ' ', 00H, '"', 00H, ' '
	DB	00H, '"', 00H, 'o', 00H, 'r', 00H, ' ', 00H, 'e', 00H, 'v', 00H
	DB	'a', 00H, 'l', 00H, 'u', 00H, 'a', 00H, 't', 00H, 'e', 00H, ' '
	DB	00H, 't', 00H, 'h', 00H, 'e', 00H, ' ', 00H, 'r', 00H, 'h', 00H
	DB	's', 00H, ' ', 00H, 'i', 00H, 'n', 00H, 't', 00H, 'o', 00H, ' '
	DB	00H, 'a', 00H, ' ', 00H, 't', 00H, 'e', 00H, 'm', 00H, 'p', 00H
	DB	'o', 00H, 'r', 00H, 'a', 00H, 'r', 00H, 'y', 00H, ' ', 00H, 'u'
	DB	00H, 's', 00H, 'i', 00H, 'n', 00H, 'g', 00H, ' ', 00H, '.', 00H
	DB	'e', 00H, 'v', 00H, 'a', 00H, 'l', 00H, '(', 00H, ')', 00H, '"'
	DB	00H, 00H, 00H				; `string'
CONST	ENDS
;	COMDAT ??_C@_1LE@ODIDILMJ@?$AAc?$AA?3?$AA?2?$AAp?$AAr?$AAo?$AAg?$AAr?$AAa?$AAm?$AA?5?$AAf?$AAi?$AAl?$AAe?$AAs?$AA?5?$AA?$CI?$AAx?$AA8?$AA6?$AA?$CJ?$AA?2?$AAm?$AAi?$AAc?$AAr?$AAo?$AAs?$AAo?$AAf?$AAt@
CONST	SEGMENT
??_C@_1LE@ODIDILMJ@?$AAc?$AA?3?$AA?2?$AAp?$AAr?$AAo?$AAg?$AAr?$AAa?$AAm?$AA?5?$AAf?$AAi?$AAl?$AAe?$AAs?$AA?5?$AA?$CI?$AAx?$AA8?$AA6?$AA?$CJ?$AA?2?$AAm?$AAi?$AAc?$AAr?$AAo?$AAs?$AAo?$AAf?$AAt@ DB 'c'
	DB	00H, ':', 00H, '\', 00H, 'p', 00H, 'r', 00H, 'o', 00H, 'g', 00H
	DB	'r', 00H, 'a', 00H, 'm', 00H, ' ', 00H, 'f', 00H, 'i', 00H, 'l'
	DB	00H, 'e', 00H, 's', 00H, ' ', 00H, '(', 00H, 'x', 00H, '8', 00H
	DB	'6', 00H, ')', 00H, '\', 00H, 'm', 00H, 'i', 00H, 'c', 00H, 'r'
	DB	00H, 'o', 00H, 's', 00H, 'o', 00H, 'f', 00H, 't', 00H, ' ', 00H
	DB	'v', 00H, 'i', 00H, 's', 00H, 'u', 00H, 'a', 00H, 'l', 00H, ' '
	DB	00H, 's', 00H, 't', 00H, 'u', 00H, 'd', 00H, 'i', 00H, 'o', 00H
	DB	' ', 00H, '1', 00H, '2', 00H, '.', 00H, '0', 00H, '\', 00H, 'v'
	DB	00H, 'c', 00H, '\', 00H, 'i', 00H, 'n', 00H, 'c', 00H, 'l', 00H
	DB	'u', 00H, 'd', 00H, 'e', 00H, '\', 00H, 'e', 00H, 'i', 00H, 'g'
	DB	00H, 'e', 00H, 'n', 00H, '\', 00H, 's', 00H, 'r', 00H, 'c', 00H
	DB	'/', 00H, 'C', 00H, 'o', 00H, 'r', 00H, 'e', 00H, '/', 00H, 'T'
	DB	00H, 'r', 00H, 'a', 00H, 'n', 00H, 's', 00H, 'p', 00H, 'o', 00H
	DB	's', 00H, 'e', 00H, '.', 00H, 'h', 00H, 00H, 00H ; `string'
CONST	ENDS
;	COMDAT ??_C@_0HC@FBBJGPCH@aliasing?5detected?5during?5transpo@
CONST	SEGMENT
??_C@_0HC@FBBJGPCH@aliasing?5detected?5during?5transpo@ DB 'aliasing dete'
	DB	'cted during transposition, use transposeInPlace() or evaluate'
	DB	' the rhs into a temporary using .eval()', 00H ; `string'
CONST	ENDS
;	COMDAT ??_C@_0BF@CHCIFIMP@output?1debug?1dff?4itx?$AA@
CONST	SEGMENT
??_C@_0BF@CHCIFIMP@output?1debug?1dff?4itx?$AA@ DB 'output/debug/dff.itx', 00H ; `string'
CONST	ENDS
;	COMDAT ??_C@_03BFACDLAE@dff?$AA@
CONST	SEGMENT
??_C@_03BFACDLAE@dff?$AA@ DB 'dff', 00H			; `string'
CONST	ENDS
;	COMDAT ??_C@_0BE@KBBKJCMH@output?1debug?1dv?4itx?$AA@
CONST	SEGMENT
??_C@_0BE@KBBKJCMH@output?1debug?1dv?4itx?$AA@ DB 'output/debug/dv.itx', 00H ; `string'
CONST	ENDS
;	COMDAT ??_C@_0BE@DPEJIGGH@output?1debug?1Af?4itx?$AA@
CONST	SEGMENT
??_C@_0BE@DPEJIGGH@output?1debug?1Af?4itx?$AA@ DB 'output/debug/Af.itx', 00H ; `string'
CONST	ENDS
;	COMDAT ??_C@_02ECEBANDL@Af?$AA@
CONST	SEGMENT
??_C@_02ECEBANDL@Af?$AA@ DB 'Af', 00H			; `string'
CONST	ENDS
;	COMDAT ??_C@_0BD@GNCKHIJO@output?1debug?1v?4itx?$AA@
CONST	SEGMENT
??_C@_0BD@GNCKHIJO@output?1debug?1v?4itx?$AA@ DB 'output/debug/v.itx', 00H ; `string'
CONST	ENDS
;	COMDAT ??_C@_02CJKHOMHP@vv?$AA@
CONST	SEGMENT
??_C@_02CJKHOMHP@vv?$AA@ DB 'vv', 00H			; `string'
CONST	ENDS
;	COMDAT ??_C@_0BE@KCMMJAFM@output?1debug?1df?4itx?$AA@
CONST	SEGMENT
??_C@_0BE@KCMMJAFM@output?1debug?1df?4itx?$AA@ DB 'output/debug/df.itx', 00H ; `string'
CONST	ENDS
;	COMDAT ??_C@_0BD@GOPMHKAF@output?1debug?1f?4itx?$AA@
CONST	SEGMENT
??_C@_0BD@GOPMHKAF@output?1debug?1f?4itx?$AA@ DB 'output/debug/f.itx', 00H ; `string'
CONST	ENDS
;	COMDAT ??_C@_0BH@EAMCBOFL@output?1debug?1count?4itx?$AA@
CONST	SEGMENT
??_C@_0BH@EAMCBOFL@output?1debug?1count?4itx?$AA@ DB 'output/debug/count.'
	DB	'itx', 00H					; `string'
CONST	ENDS
;	COMDAT ??_C@_0BG@DILIGMMN@output?1prac?1count?4itx?$AA@
CONST	SEGMENT
??_C@_0BG@DILIGMMN@output?1prac?1count?4itx?$AA@ DB 'output/prac/count.it'
	DB	'x', 00H					; `string'
CONST	ENDS
;	COMDAT ??_C@_05IOMEMJEC@count?$AA@
CONST	SEGMENT
??_C@_05IOMEMJEC@count?$AA@ DB 'count', 00H		; `string'
CONST	ENDS
;	COMDAT ?PacketSize@?1???$first_aligned@N_J@internal@Eigen@@YA_JPEBN_J@Z@4_JB
CONST	SEGMENT
?PacketSize@?1???$first_aligned@N_J@internal@Eigen@@YA_JPEBN_J@Z@4_JB DQ 0000000000000002H ; `Eigen::internal::first_aligned<double,__int64>'::`2'::PacketSize
CONST	ENDS
;	COMDAT ?PacketAlignedMask@?1???$first_aligned@N_J@internal@Eigen@@YA_JPEBN_J@Z@4_JB
CONST	SEGMENT
?PacketAlignedMask@?1???$first_aligned@N_J@internal@Eigen@@YA_JPEBN_J@Z@4_JB DQ 0000000000000001H ; `Eigen::internal::first_aligned<double,__int64>'::`2'::PacketAlignedMask
PUBLIC	?extractScalarFactor@?$blas_traits@V?$MatrixWrapper@$$CBV?$CwiseUnaryOp@U?$scalar_exp_op@N@internal@Eigen@@$$CBV?$ArrayWrapper@V?$Matrix@N$0?0$00$0A@$0?0$00@Eigen@@@3@@Eigen@@@Eigen@@@internal@Eigen@@SA?BNAEBV?$MatrixWrapper@$$CBV?$CwiseUnaryOp@U?$scalar_exp_op@N@internal@Eigen@@$$CBV?$ArrayWrapper@V?$Matrix@N$0?0$00$0A@$0?0$00@Eigen@@@3@@Eigen@@@3@@Z ; Eigen::internal::blas_traits<Eigen::MatrixWrapper<Eigen::CwiseUnaryOp<Eigen::internal::scalar_exp_op<double>,Eigen::ArrayWrapper<Eigen::Matrix<double,-1,1,0,-1,1> > const > const > >::extractScalarFactor
PUBLIC	?extract@?$blas_traits@V?$MatrixWrapper@$$CBV?$CwiseUnaryOp@U?$scalar_exp_op@N@internal@Eigen@@$$CBV?$ArrayWrapper@V?$Matrix@N$0?0$00$0A@$0?0$00@Eigen@@@3@@Eigen@@@Eigen@@@internal@Eigen@@SAAEBV?$MatrixWrapper@$$CBV?$CwiseUnaryOp@U?$scalar_exp_op@N@internal@Eigen@@$$CBV?$ArrayWrapper@V?$Matrix@N$0?0$00$0A@$0?0$00@Eigen@@@3@@Eigen@@@3@AEBV43@@Z ; Eigen::internal::blas_traits<Eigen::MatrixWrapper<Eigen::CwiseUnaryOp<Eigen::internal::scalar_exp_op<double>,Eigen::ArrayWrapper<Eigen::Matrix<double,-1,1,0,-1,1> > const > const > >::extract
PUBLIC	?rhs@?$ProductBase@V?$GeneralProduct@V?$Matrix@N$0?0$0?0$0A@$0?0$0?0@Eigen@@V?$MatrixWrapper@$$CBV?$CwiseUnaryOp@U?$scalar_exp_op@N@internal@Eigen@@$$CBV?$ArrayWrapper@V?$Matrix@N$0?0$00$0A@$0?0$00@Eigen@@@3@@Eigen@@@2@$03@Eigen@@V?$Matrix@N$0?0$0?0$0A@$0?0$0?0@2@V?$MatrixWrapper@$$CBV?$CwiseUnaryOp@U?$scalar_exp_op@N@internal@Eigen@@$$CBV?$ArrayWrapper@V?$Matrix@N$0?0$00$0A@$0?0$00@Eigen@@@3@@Eigen@@@2@@Eigen@@QEBAAEBV?$MatrixWrapper@$$CBV?$CwiseUnaryOp@U?$scalar_exp_op@N@internal@Eigen@@$$CBV?$ArrayWrapper@V?$Matrix@N$0?0$00$0A@$0?0$00@Eigen@@@3@@Eigen@@@2@XZ ; Eigen::ProductBase<Eigen::GeneralProduct<Eigen::Matrix<double,-1,-1,0,-1,-1>,Eigen::MatrixWrapper<Eigen::CwiseUnaryOp<Eigen::internal::scalar_exp_op<double>,Eigen::ArrayWrapper<Eigen::Matrix<double,-1,1,0,-1,1> > const > const >,4>,Eigen::Matrix<double,-1,-1,0,-1,-1>,Eigen::MatrixWrapper<Eigen::CwiseUnaryOp<Eigen::internal::scalar_exp_op<double>,Eigen::ArrayWrapper<Eigen::Matrix<double,-1,1,0,-1,1> > const > const > >::rhs
PUBLIC	?lhs@?$ProductBase@V?$GeneralProduct@V?$Matrix@N$0?0$0?0$0A@$0?0$0?0@Eigen@@V?$MatrixWrapper@$$CBV?$CwiseUnaryOp@U?$scalar_exp_op@N@internal@Eigen@@$$CBV?$ArrayWrapper@V?$Matrix@N$0?0$00$0A@$0?0$00@Eigen@@@3@@Eigen@@@2@$03@Eigen@@V?$Matrix@N$0?0$0?0$0A@$0?0$0?0@2@V?$MatrixWrapper@$$CBV?$CwiseUnaryOp@U?$scalar_exp_op@N@internal@Eigen@@$$CBV?$ArrayWrapper@V?$Matrix@N$0?0$00$0A@$0?0$00@Eigen@@@3@@Eigen@@@2@@Eigen@@QEBAAEBV?$Matrix@N$0?0$0?0$0A@$0?0$0?0@2@XZ ; Eigen::ProductBase<Eigen::GeneralProduct<Eigen::Matrix<double,-1,-1,0,-1,-1>,Eigen::MatrixWrapper<Eigen::CwiseUnaryOp<Eigen::internal::scalar_exp_op<double>,Eigen::ArrayWrapper<Eigen::Matrix<double,-1,1,0,-1,1> > const > const >,4>,Eigen::Matrix<double,-1,-1,0,-1,-1>,Eigen::MatrixWrapper<Eigen::CwiseUnaryOp<Eigen::internal::scalar_exp_op<double>,Eigen::ArrayWrapper<Eigen::Matrix<double,-1,1,0,-1,1> > const > const > >::lhs
PUBLIC	??$run@V?$GeneralProduct@V?$Matrix@N$0?0$0?0$0A@$0?0$0?0@Eigen@@V?$MatrixWrapper@$$CBV?$CwiseUnaryOp@U?$scalar_exp_op@N@internal@Eigen@@$$CBV?$ArrayWrapper@V?$Matrix@N$0?0$00$0A@$0?0$00@Eigen@@@3@@Eigen@@@2@$03@Eigen@@V?$Matrix@N$0?0$00$0A@$0?0$00@2@@?$gemv_selector@$01$0A@$00@internal@Eigen@@SAXAEBV?$GeneralProduct@V?$Matrix@N$0?0$0?0$0A@$0?0$0?0@Eigen@@V?$MatrixWrapper@$$CBV?$CwiseUnaryOp@U?$scalar_exp_op@N@internal@Eigen@@$$CBV?$ArrayWrapper@V?$Matrix@N$0?0$00$0A@$0?0$00@Eigen@@@3@@Eigen@@@2@$03@2@AEAV?$Matrix@N$0?0$00$0A@$0?0$00@2@AEBN@Z ; Eigen::internal::gemv_selector<2,0,1>::run<Eigen::GeneralProduct<Eigen::Matrix<double,-1,-1,0,-1,-1>,Eigen::MatrixWrapper<Eigen::CwiseUnaryOp<Eigen::internal::scalar_exp_op<double>,Eigen::ArrayWrapper<Eigen::Matrix<double,-1,1,0,-1,1> > const > const >,4>,Eigen::Matrix<double,-1,1,0,-1,1> >
PUBLIC	??$scaleAndAddTo@V?$Matrix@N$0?0$00$0A@$0?0$00@Eigen@@@?$GeneralProduct@V?$Matrix@N$0?0$0?0$0A@$0?0$0?0@Eigen@@V?$MatrixWrapper@$$CBV?$CwiseUnaryOp@U?$scalar_exp_op@N@internal@Eigen@@$$CBV?$ArrayWrapper@V?$Matrix@N$0?0$00$0A@$0?0$00@Eigen@@@3@@Eigen@@@2@$03@Eigen@@QEBAXAEAV?$Matrix@N$0?0$00$0A@$0?0$00@1@AEBN@Z ; Eigen::GeneralProduct<Eigen::Matrix<double,-1,-1,0,-1,-1>,Eigen::MatrixWrapper<Eigen::CwiseUnaryOp<Eigen::internal::scalar_exp_op<double>,Eigen::ArrayWrapper<Eigen::Matrix<double,-1,1,0,-1,1> > const > const >,4>::scaleAndAddTo<Eigen::Matrix<double,-1,1,0,-1,1> >
PUBLIC	??$copyCoeff@V?$Matrix@N$0?0$00$0A@$0?0$00@Eigen@@@?$DenseCoeffsBase@V?$Matrix@N$0?0$0?0$0A@$0?0$0?0@Eigen@@$00@Eigen@@QEAAX_JAEBV?$DenseBase@V?$Matrix@N$0?0$00$0A@$0?0$00@Eigen@@@1@@Z ; Eigen::DenseCoeffsBase<Eigen::Matrix<double,-1,-1,0,-1,-1>,1>::copyCoeff<Eigen::Matrix<double,-1,1,0,-1,1> >
PUBLIC	??$packet@$0A@@?$MapBase@V?$Block@V?$Matrix@N$0?0$00$0A@$0?0$00@Eigen@@$0?0$0?0$0A@@Eigen@@$0A@@Eigen@@QEBA?AU__m128d@@_J0@Z ; Eigen::MapBase<Eigen::Block<Eigen::Matrix<double,-1,1,0,-1,1>,-1,-1,0>,0>::packet<0>
PUBLIC	??$packet@$00@?$PlainObjectBase@V?$Matrix@N$0?0$00$0A@$0?0$00@Eigen@@@Eigen@@QEBA?AU__m128d@@_J0@Z ; Eigen::PlainObjectBase<Eigen::Matrix<double,-1,1,0,-1,1> >::packet<1>
PUBLIC	??$scaleAndAddTo@V?$Matrix@N$0?0$00$0A@$0?0$00@Eigen@@@?$ProductBase@V?$GeneralProduct@V?$Matrix@N$0?0$0?0$0A@$0?0$0?0@Eigen@@V?$MatrixWrapper@$$CBV?$CwiseUnaryOp@U?$scalar_exp_op@N@internal@Eigen@@$$CBV?$ArrayWrapper@V?$Matrix@N$0?0$00$0A@$0?0$00@Eigen@@@3@@Eigen@@@2@$03@Eigen@@V?$Matrix@N$0?0$0?0$0A@$0?0$0?0@2@V?$MatrixWrapper@$$CBV?$CwiseUnaryOp@U?$scalar_exp_op@N@internal@Eigen@@$$CBV?$ArrayWrapper@V?$Matrix@N$0?0$00$0A@$0?0$00@Eigen@@@3@@Eigen@@@2@@Eigen@@QEBAXAEAV?$Matrix@N$0?0$00$0A@$0?0$00@1@AEBN@Z ; Eigen::ProductBase<Eigen::GeneralProduct<Eigen::Matrix<double,-1,-1,0,-1,-1>,Eigen::MatrixWrapper<Eigen::CwiseUnaryOp<Eigen::internal::scalar_exp_op<double>,Eigen::ArrayWrapper<Eigen::Matrix<double,-1,1,0,-1,1> > const > const >,4>,Eigen::Matrix<double,-1,-1,0,-1,-1>,Eigen::MatrixWrapper<Eigen::CwiseUnaryOp<Eigen::internal::scalar_exp_op<double>,Eigen::ArrayWrapper<Eigen::Matrix<double,-1,1,0,-1,1> > const > const > >::scaleAndAddTo<Eigen::Matrix<double,-1,1,0,-1,1> >
PUBLIC	?run@?$checkTransposeAliasing_impl@V?$Matrix@N$0?0$0?0$0A@$0?0$0?0@Eigen@@V?$Matrix@N$0?0$00$0A@$0?0$00@2@$0A@@internal@Eigen@@SAXAEBV?$Matrix@N$0?0$0?0$0A@$0?0$0?0@3@AEBV?$Matrix@N$0?0$00$0A@$0?0$00@3@@Z ; Eigen::internal::checkTransposeAliasing_impl<Eigen::Matrix<double,-1,-1,0,-1,-1>,Eigen::Matrix<double,-1,1,0,-1,1>,0>::run
PUBLIC	?const_cast_derived@?$EigenBase@V?$Block@V?$Matrix@N$0?0$00$0A@$0?0$00@Eigen@@$0?0$0?0$0A@@Eigen@@@Eigen@@QEBAAEAV?$Block@V?$Matrix@N$0?0$00$0A@$0?0$00@Eigen@@$0?0$0?0$0A@@2@XZ ; Eigen::EigenBase<Eigen::Block<Eigen::Matrix<double,-1,1,0,-1,1>,-1,-1,0> >::const_cast_derived
PUBLIC	?coeff@?$MapBase@V?$Block@V?$Matrix@N$0?0$00$0A@$0?0$00@Eigen@@$0?0$0?0$0A@@Eigen@@$0A@@Eigen@@QEBAAEBN_J0@Z ; Eigen::MapBase<Eigen::Block<Eigen::Matrix<double,-1,1,0,-1,1>,-1,-1,0>,0>::coeff
PUBLIC	??$run@V?$Matrix@N$0?0$00$0A@$0?0$00@Eigen@@V?$Matrix@N$0?0$0?0$0A@$0?0$0?0@2@@?$unaligned_assign_impl@$0A@@internal@Eigen@@SAXAEBV?$Matrix@N$0?0$00$0A@$0?0$00@2@AEAV?$Matrix@N$0?0$0?0$0A@$0?0$0?0@2@_J2@Z ; Eigen::internal::unaligned_assign_impl<0>::run<Eigen::Matrix<double,-1,1,0,-1,1>,Eigen::Matrix<double,-1,-1,0,-1,-1> >
PUBLIC	??$copyPacket@V?$Matrix@N$0?0$00$0A@$0?0$00@Eigen@@$00$00@?$DenseCoeffsBase@V?$Matrix@N$0?0$0?0$0A@$0?0$0?0@Eigen@@$00@Eigen@@QEAAX_JAEBV?$DenseBase@V?$Matrix@N$0?0$00$0A@$0?0$00@Eigen@@@1@@Z ; Eigen::DenseCoeffsBase<Eigen::Matrix<double,-1,-1,0,-1,-1>,1>::copyPacket<Eigen::Matrix<double,-1,1,0,-1,1>,1,1>
PUBLIC	??$run@V?$Matrix@N$0?0$00$0A@$0?0$00@Eigen@@V?$Matrix@N$0?0$0?0$0A@$0?0$0?0@2@@?$unaligned_assign_impl@$00@internal@Eigen@@SAXAEBV?$Matrix@N$0?0$00$0A@$0?0$00@2@AEAV?$Matrix@N$0?0$0?0$0A@$0?0$0?0@2@_J2@Z ; Eigen::internal::unaligned_assign_impl<1>::run<Eigen::Matrix<double,-1,1,0,-1,1>,Eigen::Matrix<double,-1,-1,0,-1,-1> >
PUBLIC	??$copyPacket@V?$Block@V?$Matrix@N$0?0$00$0A@$0?0$00@Eigen@@$0?0$0?0$0A@@Eigen@@$00$0A@@?$SelfCwiseBinaryOp@U?$scalar_sum_op@N@internal@Eigen@@V?$Matrix@N$0?0$00$0A@$0?0$00@3@V?$Block@V?$Matrix@N$0?0$00$0A@$0?0$00@Eigen@@$0?0$0?0$0A@@3@@Eigen@@QEAAX_J0AEBV?$DenseBase@V?$Block@V?$Matrix@N$0?0$00$0A@$0?0$00@Eigen@@$0?0$0?0$0A@@Eigen@@@1@@Z ; Eigen::SelfCwiseBinaryOp<Eigen::internal::scalar_sum_op<double>,Eigen::Matrix<double,-1,1,0,-1,1>,Eigen::Block<Eigen::Matrix<double,-1,1,0,-1,1>,-1,-1,0> >::copyPacket<Eigen::Block<Eigen::Matrix<double,-1,1,0,-1,1>,-1,-1,0>,1,0>
PUBLIC	??$copyCoeff@V?$Block@V?$Matrix@N$0?0$00$0A@$0?0$00@Eigen@@$0?0$0?0$0A@@Eigen@@@?$SelfCwiseBinaryOp@U?$scalar_sum_op@N@internal@Eigen@@V?$Matrix@N$0?0$00$0A@$0?0$00@3@V?$Block@V?$Matrix@N$0?0$00$0A@$0?0$00@Eigen@@$0?0$0?0$0A@@3@@Eigen@@QEAAX_J0AEBV?$DenseBase@V?$Block@V?$Matrix@N$0?0$00$0A@$0?0$00@Eigen@@$0?0$0?0$0A@@Eigen@@@1@@Z ; Eigen::SelfCwiseBinaryOp<Eigen::internal::scalar_sum_op<double>,Eigen::Matrix<double,-1,1,0,-1,1>,Eigen::Block<Eigen::Matrix<double,-1,1,0,-1,1>,-1,-1,0> >::copyCoeff<Eigen::Block<Eigen::Matrix<double,-1,1,0,-1,1>,-1,-1,0> >
PUBLIC	??$writePacket@$00@?$MapBase@V?$Block@V?$Matrix@N$0?0$0?0$0A@$0?0$0?0@Eigen@@$0?0$0?0$0A@@Eigen@@$00@Eigen@@QEAAX_J0AEBU__m128d@@@Z ; Eigen::MapBase<Eigen::Block<Eigen::Matrix<double,-1,-1,0,-1,-1>,-1,-1,0>,1>::writePacket<1>
PUBLIC	??$packet@$0A@@?$PlainObjectBase@V?$Matrix@N$0?0$0?0$0A@$0?0$0?0@Eigen@@@Eigen@@QEBA?AU__m128d@@_J0@Z ; Eigen::PlainObjectBase<Eigen::Matrix<double,-1,-1,0,-1,-1> >::packet<0>
PUBLIC	??$writePacket@$00@?$MapBase@V?$Block@V?$Matrix@N$0?0$00$0A@$0?0$00@Eigen@@$0?0$0?0$0A@@Eigen@@$00@Eigen@@QEAAX_J0AEBU__m128d@@@Z ; Eigen::MapBase<Eigen::Block<Eigen::Matrix<double,-1,1,0,-1,1>,-1,-1,0>,1>::writePacket<1>
PUBLIC	??$packet@$0A@@?$PlainObjectBase@V?$Matrix@N$0?0$00$0A@$0?0$00@Eigen@@@Eigen@@QEBA?AU__m128d@@_J0@Z ; Eigen::PlainObjectBase<Eigen::Matrix<double,-1,1,0,-1,1> >::packet<0>
PUBLIC	??$checkTransposeAliasing@V?$Matrix@N$0?0$00$0A@$0?0$00@Eigen@@@?$DenseBase@V?$Matrix@N$0?0$0?0$0A@$0?0$0?0@Eigen@@@Eigen@@IEBAXAEBV?$Matrix@N$0?0$00$0A@$0?0$00@1@@Z ; Eigen::DenseBase<Eigen::Matrix<double,-1,-1,0,-1,-1> >::checkTransposeAliasing<Eigen::Matrix<double,-1,1,0,-1,1> >
PUBLIC	??$resizeLike@V?$Matrix@N$0?0$00$0A@$0?0$00@Eigen@@@?$PlainObjectBase@V?$Matrix@N$0?0$0?0$0A@$0?0$0?0@Eigen@@@Eigen@@QEAAXAEBU?$EigenBase@V?$Matrix@N$0?0$00$0A@$0?0$00@Eigen@@@1@@Z ; Eigen::PlainObjectBase<Eigen::Matrix<double,-1,-1,0,-1,-1> >::resizeLike<Eigen::Matrix<double,-1,1,0,-1,1> >
PUBLIC	??$evalTo@V?$Matrix@N$0?0$00$0A@$0?0$00@Eigen@@@?$ProductBase@V?$GeneralProduct@V?$Matrix@N$0?0$0?0$0A@$0?0$0?0@Eigen@@V?$MatrixWrapper@$$CBV?$CwiseUnaryOp@U?$scalar_exp_op@N@internal@Eigen@@$$CBV?$ArrayWrapper@V?$Matrix@N$0?0$00$0A@$0?0$00@Eigen@@@3@@Eigen@@@2@$03@Eigen@@V?$Matrix@N$0?0$0?0$0A@$0?0$0?0@2@V?$MatrixWrapper@$$CBV?$CwiseUnaryOp@U?$scalar_exp_op@N@internal@Eigen@@$$CBV?$ArrayWrapper@V?$Matrix@N$0?0$00$0A@$0?0$00@Eigen@@@3@@Eigen@@@2@@Eigen@@QEBAXAEAV?$Matrix@N$0?0$00$0A@$0?0$00@1@@Z ; Eigen::ProductBase<Eigen::GeneralProduct<Eigen::Matrix<double,-1,-1,0,-1,-1>,Eigen::MatrixWrapper<Eigen::CwiseUnaryOp<Eigen::internal::scalar_exp_op<double>,Eigen::ArrayWrapper<Eigen::Matrix<double,-1,1,0,-1,1> > const > const >,4>,Eigen::Matrix<double,-1,-1,0,-1,-1>,Eigen::MatrixWrapper<Eigen::CwiseUnaryOp<Eigen::internal::scalar_exp_op<double>,Eigen::ArrayWrapper<Eigen::Matrix<double,-1,1,0,-1,1> > const > const > >::evalTo<Eigen::Matrix<double,-1,1,0,-1,1> >
PUBLIC	??$resizeLike@V?$GeneralProduct@V?$Matrix@N$0?0$0?0$0A@$0?0$0?0@Eigen@@V?$MatrixWrapper@$$CBV?$CwiseUnaryOp@U?$scalar_exp_op@N@internal@Eigen@@$$CBV?$ArrayWrapper@V?$Matrix@N$0?0$00$0A@$0?0$00@Eigen@@@3@@Eigen@@@2@$03@Eigen@@@?$PlainObjectBase@V?$Matrix@N$0?0$00$0A@$0?0$00@Eigen@@@Eigen@@QEAAXAEBU?$EigenBase@V?$GeneralProduct@V?$Matrix@N$0?0$0?0$0A@$0?0$0?0@Eigen@@V?$MatrixWrapper@$$CBV?$CwiseUnaryOp@U?$scalar_exp_op@N@internal@Eigen@@$$CBV?$ArrayWrapper@V?$Matrix@N$0?0$00$0A@$0?0$00@Eigen@@@3@@Eigen@@@2@$03@Eigen@@@1@@Z ; Eigen::PlainObjectBase<Eigen::Matrix<double,-1,1,0,-1,1> >::resizeLike<Eigen::GeneralProduct<Eigen::Matrix<double,-1,-1,0,-1,-1>,Eigen::MatrixWrapper<Eigen::CwiseUnaryOp<Eigen::internal::scalar_exp_op<double>,Eigen::ArrayWrapper<Eigen::Matrix<double,-1,1,0,-1,1> > const > const >,4> >
PUBLIC	??$resizeLike@V?$GeneralProduct@V?$Matrix@N$0?0$0?0$0A@$0?0$0?0@Eigen@@V?$MatrixWrapper@$$CBV?$CwiseUnaryOp@U?$scalar_exp_op@N@internal@Eigen@@$$CBV?$ArrayWrapper@$$CBV?$Matrix@N$0?0$00$0A@$0?0$00@Eigen@@@3@@Eigen@@@2@$03@Eigen@@@?$PlainObjectBase@V?$Matrix@N$0?0$00$0A@$0?0$00@Eigen@@@Eigen@@QEAAXAEBU?$EigenBase@V?$GeneralProduct@V?$Matrix@N$0?0$0?0$0A@$0?0$0?0@Eigen@@V?$MatrixWrapper@$$CBV?$CwiseUnaryOp@U?$scalar_exp_op@N@internal@Eigen@@$$CBV?$ArrayWrapper@$$CBV?$Matrix@N$0?0$00$0A@$0?0$00@Eigen@@@3@@Eigen@@@2@$03@Eigen@@@1@@Z ; Eigen::PlainObjectBase<Eigen::Matrix<double,-1,1,0,-1,1> >::resizeLike<Eigen::GeneralProduct<Eigen::Matrix<double,-1,-1,0,-1,-1>,Eigen::MatrixWrapper<Eigen::CwiseUnaryOp<Eigen::internal::scalar_exp_op<double>,Eigen::ArrayWrapper<Eigen::Matrix<double,-1,1,0,-1,1> const > const > const >,4> >
PUBLIC	?derived@?$EigenBase@V?$Transpose@$$CBV?$Matrix@N$0?0$0?0$0A@$0?0$0?0@Eigen@@@Eigen@@@Eigen@@QEAAAEAV?$Transpose@$$CBV?$Matrix@N$0?0$0?0$0A@$0?0$0?0@Eigen@@@2@XZ ; Eigen::EigenBase<Eigen::Transpose<Eigen::Matrix<double,-1,-1,0,-1,-1> const > >::derived
PUBLIC	?nestedExpression@?$Transpose@$$CBV?$Matrix@N$0?0$0?0$0A@$0?0$0?0@Eigen@@@Eigen@@QEAAAEAV?$Matrix@N$0?0$0?0$0A@$0?0$0?0@2@XZ ; Eigen::Transpose<Eigen::Matrix<double,-1,-1,0,-1,-1> const >::nestedExpression
PUBLIC	?extract@?$blas_traits@V?$Block@V?$Matrix@N$0?0$0?0$0A@$0?0$0?0@Eigen@@$0?0$0?0$0A@@Eigen@@@internal@Eigen@@SAAEBV?$Block@V?$Matrix@N$0?0$0?0$0A@$0?0$0?0@Eigen@@$0?0$0?0$0A@@3@AEBV43@@Z ; Eigen::internal::blas_traits<Eigen::Block<Eigen::Matrix<double,-1,-1,0,-1,-1>,-1,-1,0> >::extract
PUBLIC	?data@?$MapBase@V?$Block@V?$Matrix@N$0?0$0?0$0A@$0?0$0?0@Eigen@@$0?0$0?0$0A@@Eigen@@$00@Eigen@@QEBAPEBNXZ ; Eigen::MapBase<Eigen::Block<Eigen::Matrix<double,-1,-1,0,-1,-1>,-1,-1,0>,1>::data
PUBLIC	?data@?$TransposeImpl@$$CBV?$Matrix@N$0?0$0?0$0A@$0?0$0?0@Eigen@@UDense@2@@Eigen@@QEAAPEBNXZ ; Eigen::TransposeImpl<Eigen::Matrix<double,-1,-1,0,-1,-1> const ,Eigen::Dense>::data
PUBLIC	?run@?$extract_data_selector@V?$Transpose@V?$Matrix@N$0?0$0?0$0A@$0?0$0?0@Eigen@@@Eigen@@$00@internal@Eigen@@SAPEBNAEBV?$Transpose@V?$Matrix@N$0?0$0?0$0A@$0?0$0?0@Eigen@@@3@@Z ; Eigen::internal::extract_data_selector<Eigen::Transpose<Eigen::Matrix<double,-1,-1,0,-1,-1> >,1>::run
PUBLIC	?run@?$extract_data_selector@V?$Block@V?$Matrix@N$0?0$0?0$0A@$0?0$0?0@Eigen@@$0?0$0?0$0A@@Eigen@@$00@internal@Eigen@@SAPEBNAEBV?$Block@V?$Matrix@N$0?0$0?0$0A@$0?0$0?0@Eigen@@$0?0$0?0$0A@@3@@Z ; Eigen::internal::extract_data_selector<Eigen::Block<Eigen::Matrix<double,-1,-1,0,-1,-1>,-1,-1,0>,1>::run
PUBLIC	?run@?$checkTransposeAliasing_impl@V?$SelfCwiseBinaryOp@U?$scalar_sum_op@N@internal@Eigen@@V?$Matrix@N$0?0$00$0A@$0?0$00@3@V?$Block@V?$Matrix@N$0?0$00$0A@$0?0$00@Eigen@@$0?0$0?0$0A@@3@@Eigen@@V?$Block@V?$Matrix@N$0?0$00$0A@$0?0$00@Eigen@@$0?0$0?0$0A@@2@$0A@@internal@Eigen@@SAXAEBV?$SelfCwiseBinaryOp@U?$scalar_sum_op@N@internal@Eigen@@V?$Matrix@N$0?0$00$0A@$0?0$00@3@V?$Block@V?$Matrix@N$0?0$00$0A@$0?0$00@Eigen@@$0?0$0?0$0A@@3@@3@AEBV?$Block@V?$Matrix@N$0?0$00$0A@$0?0$00@Eigen@@$0?0$0?0$0A@@3@@Z ; Eigen::internal::checkTransposeAliasing_impl<Eigen::SelfCwiseBinaryOp<Eigen::internal::scalar_sum_op<double>,Eigen::Matrix<double,-1,1,0,-1,1>,Eigen::Block<Eigen::Matrix<double,-1,1,0,-1,1>,-1,-1,0> >,Eigen::Block<Eigen::Matrix<double,-1,1,0,-1,1>,-1,-1,0>,0>::run
PUBLIC	?run@?$assign_impl@V?$Matrix@N$0?0$0?0$0A@$0?0$0?0@Eigen@@V?$Matrix@N$0?0$00$0A@$0?0$00@2@$02$0A@$0A@@internal@Eigen@@SAXAEAV?$Matrix@N$0?0$0?0$0A@$0?0$0?0@3@AEBV?$Matrix@N$0?0$00$0A@$0?0$00@3@@Z ; Eigen::internal::assign_impl<Eigen::Matrix<double,-1,-1,0,-1,-1>,Eigen::Matrix<double,-1,1,0,-1,1>,3,0,0>::run
PUBLIC	?colIndexByOuterInner@?$DenseCoeffsBase@V?$SelfCwiseBinaryOp@U?$scalar_sum_op@N@internal@Eigen@@V?$Matrix@N$0?0$00$0A@$0?0$00@3@V?$Block@V?$Matrix@N$0?0$00$0A@$0?0$00@Eigen@@$0?0$0?0$0A@@3@@Eigen@@$0A@@Eigen@@QEBA_J_J0@Z ; Eigen::DenseCoeffsBase<Eigen::SelfCwiseBinaryOp<Eigen::internal::scalar_sum_op<double>,Eigen::Matrix<double,-1,1,0,-1,1>,Eigen::Block<Eigen::Matrix<double,-1,1,0,-1,1>,-1,-1,0> >,0>::colIndexByOuterInner
PUBLIC	?rowIndexByOuterInner@?$DenseCoeffsBase@V?$SelfCwiseBinaryOp@U?$scalar_sum_op@N@internal@Eigen@@V?$Matrix@N$0?0$00$0A@$0?0$00@3@V?$Block@V?$Matrix@N$0?0$00$0A@$0?0$00@Eigen@@$0?0$0?0$0A@@3@@Eigen@@$0A@@Eigen@@QEBA_J_J0@Z ; Eigen::DenseCoeffsBase<Eigen::SelfCwiseBinaryOp<Eigen::internal::scalar_sum_op<double>,Eigen::Matrix<double,-1,1,0,-1,1>,Eigen::Block<Eigen::Matrix<double,-1,1,0,-1,1>,-1,-1,0> >,0>::rowIndexByOuterInner
PUBLIC	?coeff@?$TransposeImpl@V?$Matrix@N$0?0$0?0$0A@$0?0$0?0@Eigen@@UDense@2@@Eigen@@QEBAAEBN_J0@Z ; Eigen::TransposeImpl<Eigen::Matrix<double,-1,-1,0,-1,-1>,Eigen::Dense>::coeff
PUBLIC	??$extract_data@V?$Transpose@V?$Matrix@N$0?0$0?0$0A@$0?0$0?0@Eigen@@@Eigen@@@internal@Eigen@@YAPEBNAEBV?$Transpose@V?$Matrix@N$0?0$0?0$0A@$0?0$0?0@Eigen@@@1@@Z ; Eigen::internal::extract_data<Eigen::Transpose<Eigen::Matrix<double,-1,-1,0,-1,-1> > >
PUBLIC	??$copyPacketByOuterInner@V?$Block@V?$Matrix@N$0?0$00$0A@$0?0$00@Eigen@@$0?0$0?0$0A@@Eigen@@$00$0A@@?$DenseCoeffsBase@V?$SelfCwiseBinaryOp@U?$scalar_sum_op@N@internal@Eigen@@V?$Matrix@N$0?0$00$0A@$0?0$00@3@V?$Block@V?$Matrix@N$0?0$00$0A@$0?0$00@Eigen@@$0?0$0?0$0A@@3@@Eigen@@$00@Eigen@@QEAAX_J0AEBV?$DenseBase@V?$Block@V?$Matrix@N$0?0$00$0A@$0?0$00@Eigen@@$0?0$0?0$0A@@Eigen@@@1@@Z ; Eigen::DenseCoeffsBase<Eigen::SelfCwiseBinaryOp<Eigen::internal::scalar_sum_op<double>,Eigen::Matrix<double,-1,1,0,-1,1>,Eigen::Block<Eigen::Matrix<double,-1,1,0,-1,1>,-1,-1,0> >,1>::copyPacketByOuterInner<Eigen::Block<Eigen::Matrix<double,-1,1,0,-1,1>,-1,-1,0>,1,0>
PUBLIC	??$copyCoeffByOuterInner@V?$Block@V?$Matrix@N$0?0$00$0A@$0?0$00@Eigen@@$0?0$0?0$0A@@Eigen@@@?$DenseCoeffsBase@V?$SelfCwiseBinaryOp@U?$scalar_sum_op@N@internal@Eigen@@V?$Matrix@N$0?0$00$0A@$0?0$00@3@V?$Block@V?$Matrix@N$0?0$00$0A@$0?0$00@Eigen@@$0?0$0?0$0A@@3@@Eigen@@$00@Eigen@@QEAAX_J0AEBV?$DenseBase@V?$Block@V?$Matrix@N$0?0$00$0A@$0?0$00@Eigen@@$0?0$0?0$0A@@Eigen@@@1@@Z ; Eigen::DenseCoeffsBase<Eigen::SelfCwiseBinaryOp<Eigen::internal::scalar_sum_op<double>,Eigen::Matrix<double,-1,1,0,-1,1>,Eigen::Block<Eigen::Matrix<double,-1,1,0,-1,1>,-1,-1,0> >,1>::copyCoeffByOuterInner<Eigen::Block<Eigen::Matrix<double,-1,1,0,-1,1>,-1,-1,0> >
PUBLIC	??$extract_data@V?$Block@V?$Matrix@N$0?0$0?0$0A@$0?0$0?0@Eigen@@$0?0$0?0$0A@@Eigen@@@internal@Eigen@@YAPEBNAEBV?$Block@V?$Matrix@N$0?0$0?0$0A@$0?0$0?0@Eigen@@$0?0$0?0$0A@@1@@Z ; Eigen::internal::extract_data<Eigen::Block<Eigen::Matrix<double,-1,-1,0,-1,-1>,-1,-1,0> >
PUBLIC	??$copyCoeff@V?$Transpose@V?$Matrix@N$0?0$0?0$0A@$0?0$0?0@Eigen@@@Eigen@@@?$DenseCoeffsBase@V?$Block@V?$Matrix@N$0?0$0?0$0A@$0?0$0?0@Eigen@@$0?0$0?0$0A@@Eigen@@$00@Eigen@@QEAAX_J0AEBV?$DenseBase@V?$Transpose@V?$Matrix@N$0?0$0?0$0A@$0?0$0?0@Eigen@@@Eigen@@@1@@Z ; Eigen::DenseCoeffsBase<Eigen::Block<Eigen::Matrix<double,-1,-1,0,-1,-1>,-1,-1,0>,1>::copyCoeff<Eigen::Transpose<Eigen::Matrix<double,-1,-1,0,-1,-1> > >
PUBLIC	??$copyPacket@V?$Matrix@N$0?0$0?0$0A@$0?0$0?0@Eigen@@$00$0A@@?$DenseCoeffsBase@V?$Block@V?$Matrix@N$0?0$0?0$0A@$0?0$0?0@Eigen@@$0?0$0?0$0A@@Eigen@@$00@Eigen@@QEAAX_J0AEBV?$DenseBase@V?$Matrix@N$0?0$0?0$0A@$0?0$0?0@Eigen@@@1@@Z ; Eigen::DenseCoeffsBase<Eigen::Block<Eigen::Matrix<double,-1,-1,0,-1,-1>,-1,-1,0>,1>::copyPacket<Eigen::Matrix<double,-1,-1,0,-1,-1>,1,0>
PUBLIC	??$copyCoeff@V?$Matrix@N$0?0$0?0$0A@$0?0$0?0@Eigen@@@?$DenseCoeffsBase@V?$Block@V?$Matrix@N$0?0$0?0$0A@$0?0$0?0@Eigen@@$0?0$0?0$0A@@Eigen@@$00@Eigen@@QEAAX_J0AEBV?$DenseBase@V?$Matrix@N$0?0$0?0$0A@$0?0$0?0@Eigen@@@1@@Z ; Eigen::DenseCoeffsBase<Eigen::Block<Eigen::Matrix<double,-1,-1,0,-1,-1>,-1,-1,0>,1>::copyCoeff<Eigen::Matrix<double,-1,-1,0,-1,-1> >
PUBLIC	??$copyPacket@V?$Matrix@N$0?0$00$0A@$0?0$00@Eigen@@$00$0A@@?$DenseCoeffsBase@V?$Block@V?$Matrix@N$0?0$00$0A@$0?0$00@Eigen@@$0?0$0?0$0A@@Eigen@@$00@Eigen@@QEAAX_J0AEBV?$DenseBase@V?$Matrix@N$0?0$00$0A@$0?0$00@Eigen@@@1@@Z ; Eigen::DenseCoeffsBase<Eigen::Block<Eigen::Matrix<double,-1,1,0,-1,1>,-1,-1,0>,1>::copyPacket<Eigen::Matrix<double,-1,1,0,-1,1>,1,0>
PUBLIC	??$copyCoeff@V?$Matrix@N$0?0$00$0A@$0?0$00@Eigen@@@?$DenseCoeffsBase@V?$Block@V?$Matrix@N$0?0$00$0A@$0?0$00@Eigen@@$0?0$0?0$0A@@Eigen@@$00@Eigen@@QEAAX_J0AEBV?$DenseBase@V?$Matrix@N$0?0$00$0A@$0?0$00@Eigen@@@1@@Z ; Eigen::DenseCoeffsBase<Eigen::Block<Eigen::Matrix<double,-1,1,0,-1,1>,-1,-1,0>,1>::copyCoeff<Eigen::Matrix<double,-1,1,0,-1,1> >
PUBLIC	??$checkTransposeAliasing@V?$Block@V?$Matrix@N$0?0$00$0A@$0?0$00@Eigen@@$0?0$0?0$0A@@Eigen@@@?$DenseBase@V?$SelfCwiseBinaryOp@U?$scalar_sum_op@N@internal@Eigen@@V?$Matrix@N$0?0$00$0A@$0?0$00@3@V?$Block@V?$Matrix@N$0?0$00$0A@$0?0$00@Eigen@@$0?0$0?0$0A@@3@@Eigen@@@Eigen@@IEBAXAEBV?$Block@V?$Matrix@N$0?0$00$0A@$0?0$00@Eigen@@$0?0$0?0$0A@@1@@Z ; Eigen::DenseBase<Eigen::SelfCwiseBinaryOp<Eigen::internal::scalar_sum_op<double>,Eigen::Matrix<double,-1,1,0,-1,1>,Eigen::Block<Eigen::Matrix<double,-1,1,0,-1,1>,-1,-1,0> > >::checkTransposeAliasing<Eigen::Block<Eigen::Matrix<double,-1,1,0,-1,1>,-1,-1,0> >
PUBLIC	??$lazyAssign@V?$Matrix@N$0?0$00$0A@$0?0$00@Eigen@@@?$DenseBase@V?$Matrix@N$0?0$0?0$0A@$0?0$0?0@Eigen@@@Eigen@@QEAAAEAV?$Matrix@N$0?0$0?0$0A@$0?0$0?0@1@AEBV?$DenseBase@V?$Matrix@N$0?0$00$0A@$0?0$00@Eigen@@@1@@Z ; Eigen::DenseBase<Eigen::Matrix<double,-1,-1,0,-1,-1> >::lazyAssign<Eigen::Matrix<double,-1,1,0,-1,1> >
PUBLIC	??$_resize_to_match@V?$Matrix@N$0?0$00$0A@$0?0$00@Eigen@@@?$PlainObjectBase@V?$Matrix@N$0?0$0?0$0A@$0?0$0?0@Eigen@@@Eigen@@IEAAXAEBU?$EigenBase@V?$Matrix@N$0?0$00$0A@$0?0$00@Eigen@@@1@@Z ; Eigen::PlainObjectBase<Eigen::Matrix<double,-1,-1,0,-1,-1> >::_resize_to_match<Eigen::Matrix<double,-1,1,0,-1,1> >
PUBLIC	??$lazyAssign@V?$GeneralProduct@V?$Matrix@N$0?0$0?0$0A@$0?0$0?0@Eigen@@V?$MatrixWrapper@$$CBV?$CwiseUnaryOp@U?$scalar_exp_op@N@internal@Eigen@@$$CBV?$ArrayWrapper@V?$Matrix@N$0?0$00$0A@$0?0$00@Eigen@@@3@@Eigen@@@2@$03@Eigen@@V?$Matrix@N$0?0$0?0$0A@$0?0$0?0@2@V?$MatrixWrapper@$$CBV?$CwiseUnaryOp@U?$scalar_exp_op@N@internal@Eigen@@$$CBV?$ArrayWrapper@V?$Matrix@N$0?0$00$0A@$0?0$00@Eigen@@@3@@Eigen@@@2@@?$MatrixBase@V?$Matrix@N$0?0$00$0A@$0?0$00@Eigen@@@Eigen@@QEAAAEAV?$Matrix@N$0?0$00$0A@$0?0$00@1@AEBV?$ProductBase@V?$GeneralProduct@V?$Matrix@N$0?0$0?0$0A@$0?0$0?0@Eigen@@V?$MatrixWrapper@$$CBV?$CwiseUnaryOp@U?$scalar_exp_op@N@internal@Eigen@@$$CBV?$ArrayWrapper@V?$Matrix@N$0?0$00$0A@$0?0$00@Eigen@@@3@@Eigen@@@2@$03@Eigen@@V?$Matrix@N$0?0$0?0$0A@$0?0$0?0@2@V?$MatrixWrapper@$$CBV?$CwiseUnaryOp@U?$scalar_exp_op@N@internal@Eigen@@$$CBV?$ArrayWrapper@V?$Matrix@N$0?0$00$0A@$0?0$00@Eigen@@@3@@Eigen@@@2@@1@@Z ; Eigen::MatrixBase<Eigen::Matrix<double,-1,1,0,-1,1> >::lazyAssign<Eigen::GeneralProduct<Eigen::Matrix<double,-1,-1,0,-1,-1>,Eigen::MatrixWrapper<Eigen::CwiseUnaryOp<Eigen::internal::scalar_exp_op<double>,Eigen::ArrayWrapper<Eigen::Matrix<double,-1,1,0,-1,1> > const > const >,4>,Eigen::Matrix<double,-1,-1,0,-1,-1>,Eigen::MatrixWrapper<Eigen::CwiseUnaryOp<Eigen::internal::scalar_exp_op<double>,Eigen::ArrayWrapper<Eigen::Matrix<double,-1,1,0,-1,1> > const > const > >
PUBLIC	??$_resize_to_match@V?$GeneralProduct@V?$Matrix@N$0?0$0?0$0A@$0?0$0?0@Eigen@@V?$MatrixWrapper@$$CBV?$CwiseUnaryOp@U?$scalar_exp_op@N@internal@Eigen@@$$CBV?$ArrayWrapper@V?$Matrix@N$0?0$00$0A@$0?0$00@Eigen@@@3@@Eigen@@@2@$03@Eigen@@@?$PlainObjectBase@V?$Matrix@N$0?0$00$0A@$0?0$00@Eigen@@@Eigen@@IEAAXAEBU?$EigenBase@V?$GeneralProduct@V?$Matrix@N$0?0$0?0$0A@$0?0$0?0@Eigen@@V?$MatrixWrapper@$$CBV?$CwiseUnaryOp@U?$scalar_exp_op@N@internal@Eigen@@$$CBV?$ArrayWrapper@V?$Matrix@N$0?0$00$0A@$0?0$00@Eigen@@@3@@Eigen@@@2@$03@Eigen@@@1@@Z ; Eigen::PlainObjectBase<Eigen::Matrix<double,-1,1,0,-1,1> >::_resize_to_match<Eigen::GeneralProduct<Eigen::Matrix<double,-1,-1,0,-1,-1>,Eigen::MatrixWrapper<Eigen::CwiseUnaryOp<Eigen::internal::scalar_exp_op<double>,Eigen::ArrayWrapper<Eigen::Matrix<double,-1,1,0,-1,1> > const > const >,4> >
PUBLIC	??$lazyAssign@V?$GeneralProduct@V?$Matrix@N$0?0$0?0$0A@$0?0$0?0@Eigen@@V?$MatrixWrapper@$$CBV?$CwiseUnaryOp@U?$scalar_exp_op@N@internal@Eigen@@$$CBV?$ArrayWrapper@$$CBV?$Matrix@N$0?0$00$0A@$0?0$00@Eigen@@@3@@Eigen@@@2@$03@Eigen@@V?$Matrix@N$0?0$0?0$0A@$0?0$0?0@2@V?$MatrixWrapper@$$CBV?$CwiseUnaryOp@U?$scalar_exp_op@N@internal@Eigen@@$$CBV?$ArrayWrapper@$$CBV?$Matrix@N$0?0$00$0A@$0?0$00@Eigen@@@3@@Eigen@@@2@@?$MatrixBase@V?$Matrix@N$0?0$00$0A@$0?0$00@Eigen@@@Eigen@@QEAAAEAV?$Matrix@N$0?0$00$0A@$0?0$00@1@AEBV?$ProductBase@V?$GeneralProduct@V?$Matrix@N$0?0$0?0$0A@$0?0$0?0@Eigen@@V?$MatrixWrapper@$$CBV?$CwiseUnaryOp@U?$scalar_exp_op@N@internal@Eigen@@$$CBV?$ArrayWrapper@$$CBV?$Matrix@N$0?0$00$0A@$0?0$00@Eigen@@@3@@Eigen@@@2@$03@Eigen@@V?$Matrix@N$0?0$0?0$0A@$0?0$0?0@2@V?$MatrixWrapper@$$CBV?$CwiseUnaryOp@U?$scalar_exp_op@N@internal@Eigen@@$$CBV?$ArrayWrapper@$$CBV?$Matrix@N$0?0$00$0A@$0?0$00@Eigen@@@3@@Eigen@@@2@@1@@Z ; Eigen::MatrixBase<Eigen::Matrix<double,-1,1,0,-1,1> >::lazyAssign<Eigen::GeneralProduct<Eigen::Matrix<double,-1,-1,0,-1,-1>,Eigen::MatrixWrapper<Eigen::CwiseUnaryOp<Eigen::internal::scalar_exp_op<double>,Eigen::ArrayWrapper<Eigen::Matrix<double,-1,1,0,-1,1> const > const > const >,4>,Eigen::Matrix<double,-1,-1,0,-1,-1>,Eigen::MatrixWrapper<Eigen::CwiseUnaryOp<Eigen::internal::scalar_exp_op<double>,Eigen::ArrayWrapper<Eigen::Matrix<double,-1,1,0,-1,1> const > const > const > >
PUBLIC	??$_resize_to_match@V?$GeneralProduct@V?$Matrix@N$0?0$0?0$0A@$0?0$0?0@Eigen@@V?$MatrixWrapper@$$CBV?$CwiseUnaryOp@U?$scalar_exp_op@N@internal@Eigen@@$$CBV?$ArrayWrapper@$$CBV?$Matrix@N$0?0$00$0A@$0?0$00@Eigen@@@3@@Eigen@@@2@$03@Eigen@@@?$PlainObjectBase@V?$Matrix@N$0?0$00$0A@$0?0$00@Eigen@@@Eigen@@IEAAXAEBU?$EigenBase@V?$GeneralProduct@V?$Matrix@N$0?0$0?0$0A@$0?0$0?0@Eigen@@V?$MatrixWrapper@$$CBV?$CwiseUnaryOp@U?$scalar_exp_op@N@internal@Eigen@@$$CBV?$ArrayWrapper@$$CBV?$Matrix@N$0?0$00$0A@$0?0$00@Eigen@@@3@@Eigen@@@2@$03@Eigen@@@1@@Z ; Eigen::PlainObjectBase<Eigen::Matrix<double,-1,1,0,-1,1> >::_resize_to_match<Eigen::GeneralProduct<Eigen::Matrix<double,-1,-1,0,-1,-1>,Eigen::MatrixWrapper<Eigen::CwiseUnaryOp<Eigen::internal::scalar_exp_op<double>,Eigen::ArrayWrapper<Eigen::Matrix<double,-1,1,0,-1,1> const > const > const >,4> >
PUBLIC	?derived@?$EigenBase@V?$SelfCwiseBinaryOp@U?$scalar_sum_op@N@internal@Eigen@@V?$Matrix@N$0?0$00$0A@$0?0$00@3@V?$Block@V?$Matrix@N$0?0$00$0A@$0?0$00@Eigen@@$0?0$0?0$0A@@3@@Eigen@@@Eigen@@QEBAAEBV?$SelfCwiseBinaryOp@U?$scalar_sum_op@N@internal@Eigen@@V?$Matrix@N$0?0$00$0A@$0?0$00@3@V?$Block@V?$Matrix@N$0?0$00$0A@$0?0$00@Eigen@@$0?0$0?0$0A@@3@@2@XZ ; Eigen::EigenBase<Eigen::SelfCwiseBinaryOp<Eigen::internal::scalar_sum_op<double>,Eigen::Matrix<double,-1,1,0,-1,1>,Eigen::Block<Eigen::Matrix<double,-1,1,0,-1,1>,-1,-1,0> > >::derived
PUBLIC	?size@?$EigenBase@V?$SelfCwiseBinaryOp@U?$scalar_sum_op@N@internal@Eigen@@V?$Matrix@N$0?0$00$0A@$0?0$00@3@V?$Block@V?$Matrix@N$0?0$00$0A@$0?0$00@Eigen@@$0?0$0?0$0A@@3@@Eigen@@@Eigen@@QEBA_JXZ ; Eigen::EigenBase<Eigen::SelfCwiseBinaryOp<Eigen::internal::scalar_sum_op<double>,Eigen::Matrix<double,-1,1,0,-1,1>,Eigen::Block<Eigen::Matrix<double,-1,1,0,-1,1>,-1,-1,0> > >::size
PUBLIC	?cols@?$EigenBase@V?$SelfCwiseBinaryOp@U?$scalar_sum_op@N@internal@Eigen@@V?$Matrix@N$0?0$00$0A@$0?0$00@3@V?$Block@V?$Matrix@N$0?0$00$0A@$0?0$00@Eigen@@$0?0$0?0$0A@@3@@Eigen@@@Eigen@@QEBA_JXZ ; Eigen::EigenBase<Eigen::SelfCwiseBinaryOp<Eigen::internal::scalar_sum_op<double>,Eigen::Matrix<double,-1,1,0,-1,1>,Eigen::Block<Eigen::Matrix<double,-1,1,0,-1,1>,-1,-1,0> > >::cols
PUBLIC	?rows@?$EigenBase@V?$SelfCwiseBinaryOp@U?$scalar_sum_op@N@internal@Eigen@@V?$Matrix@N$0?0$00$0A@$0?0$00@3@V?$Block@V?$Matrix@N$0?0$00$0A@$0?0$00@Eigen@@$0?0$0?0$0A@@3@@Eigen@@@Eigen@@QEBA_JXZ ; Eigen::EigenBase<Eigen::SelfCwiseBinaryOp<Eigen::internal::scalar_sum_op<double>,Eigen::Matrix<double,-1,1,0,-1,1>,Eigen::Block<Eigen::Matrix<double,-1,1,0,-1,1>,-1,-1,0> > >::rows
PUBLIC	?run@?$check_transpose_aliasing_run_time_selector@N$0A@V?$Transpose@V?$Matrix@N$0?0$0?0$0A@$0?0$0?0@Eigen@@@Eigen@@@internal@Eigen@@SA_NPEBNAEBV?$Transpose@V?$Matrix@N$0?0$0?0$0A@$0?0$0?0@Eigen@@@3@@Z ; Eigen::internal::check_transpose_aliasing_run_time_selector<double,0,Eigen::Transpose<Eigen::Matrix<double,-1,-1,0,-1,-1> > >::run
PUBLIC	?innerSize@?$DenseBase@V?$SelfCwiseBinaryOp@U?$scalar_sum_op@N@internal@Eigen@@V?$Matrix@N$0?0$00$0A@$0?0$00@3@V?$Block@V?$Matrix@N$0?0$00$0A@$0?0$00@Eigen@@$0?0$0?0$0A@@3@@Eigen@@@Eigen@@QEBA_JXZ ; Eigen::DenseBase<Eigen::SelfCwiseBinaryOp<Eigen::internal::scalar_sum_op<double>,Eigen::Matrix<double,-1,1,0,-1,1>,Eigen::Block<Eigen::Matrix<double,-1,1,0,-1,1>,-1,-1,0> > >::innerSize
PUBLIC	?outerSize@?$DenseBase@V?$SelfCwiseBinaryOp@U?$scalar_sum_op@N@internal@Eigen@@V?$Matrix@N$0?0$00$0A@$0?0$00@3@V?$Block@V?$Matrix@N$0?0$00$0A@$0?0$00@Eigen@@$0?0$0?0$0A@@3@@Eigen@@@Eigen@@QEBA_JXZ ; Eigen::DenseBase<Eigen::SelfCwiseBinaryOp<Eigen::internal::scalar_sum_op<double>,Eigen::Matrix<double,-1,1,0,-1,1>,Eigen::Block<Eigen::Matrix<double,-1,1,0,-1,1>,-1,-1,0> > >::outerSize
PUBLIC	?coeffRef@?$SelfCwiseBinaryOp@U?$scalar_sum_op@N@internal@Eigen@@V?$Matrix@N$0?0$00$0A@$0?0$00@3@V?$Block@V?$Matrix@N$0?0$00$0A@$0?0$00@Eigen@@$0?0$0?0$0A@@3@@Eigen@@QEAAAEAN_J0@Z ; Eigen::SelfCwiseBinaryOp<Eigen::internal::scalar_sum_op<double>,Eigen::Matrix<double,-1,1,0,-1,1>,Eigen::Block<Eigen::Matrix<double,-1,1,0,-1,1>,-1,-1,0> >::coeffRef
PUBLIC	?outerStride@?$SelfCwiseBinaryOp@U?$scalar_sum_op@N@internal@Eigen@@V?$Matrix@N$0?0$00$0A@$0?0$00@3@V?$Block@V?$Matrix@N$0?0$00$0A@$0?0$00@Eigen@@$0?0$0?0$0A@@3@@Eigen@@QEBA_JXZ ; Eigen::SelfCwiseBinaryOp<Eigen::internal::scalar_sum_op<double>,Eigen::Matrix<double,-1,1,0,-1,1>,Eigen::Block<Eigen::Matrix<double,-1,1,0,-1,1>,-1,-1,0> >::outerStride
PUBLIC	?run@?$assign_impl@V?$SelfCwiseBinaryOp@U?$scalar_sum_op@N@internal@Eigen@@V?$Matrix@N$0?0$00$0A@$0?0$00@3@V?$Block@V?$Matrix@N$0?0$00$0A@$0?0$00@Eigen@@$0?0$0?0$0A@@3@@Eigen@@V?$Block@V?$Matrix@N$0?0$00$0A@$0?0$00@Eigen@@$0?0$0?0$0A@@2@$03$0A@$0A@@internal@Eigen@@SAXAEAV?$SelfCwiseBinaryOp@U?$scalar_sum_op@N@internal@Eigen@@V?$Matrix@N$0?0$00$0A@$0?0$00@3@V?$Block@V?$Matrix@N$0?0$00$0A@$0?0$00@Eigen@@$0?0$0?0$0A@@3@@3@AEBV?$Block@V?$Matrix@N$0?0$00$0A@$0?0$00@Eigen@@$0?0$0?0$0A@@3@@Z ; Eigen::internal::assign_impl<Eigen::SelfCwiseBinaryOp<Eigen::internal::scalar_sum_op<double>,Eigen::Matrix<double,-1,1,0,-1,1>,Eigen::Block<Eigen::Matrix<double,-1,1,0,-1,1>,-1,-1,0> >,Eigen::Block<Eigen::Matrix<double,-1,1,0,-1,1>,-1,-1,0>,4,0,0>::run
PUBLIC	?run@?$checkTransposeAliasing_impl@V?$Block@V?$Matrix@N$0?0$0?0$0A@$0?0$0?0@Eigen@@$0?0$0?0$0A@@Eigen@@V?$Transpose@V?$Matrix@N$0?0$0?0$0A@$0?0$0?0@Eigen@@@2@$00@internal@Eigen@@SAXAEBV?$Block@V?$Matrix@N$0?0$0?0$0A@$0?0$0?0@Eigen@@$0?0$0?0$0A@@3@AEBV?$Transpose@V?$Matrix@N$0?0$0?0$0A@$0?0$0?0@Eigen@@@3@@Z ; Eigen::internal::checkTransposeAliasing_impl<Eigen::Block<Eigen::Matrix<double,-1,-1,0,-1,-1>,-1,-1,0>,Eigen::Transpose<Eigen::Matrix<double,-1,-1,0,-1,-1> >,1>::run
PUBLIC	?run@?$checkTransposeAliasing_impl@V?$Block@V?$Matrix@N$0?0$0?0$0A@$0?0$0?0@Eigen@@$0?0$0?0$0A@@Eigen@@V?$Matrix@N$0?0$0?0$0A@$0?0$0?0@2@$0A@@internal@Eigen@@SAXAEBV?$Block@V?$Matrix@N$0?0$0?0$0A@$0?0$0?0@Eigen@@$0?0$0?0$0A@@3@AEBV?$Matrix@N$0?0$0?0$0A@$0?0$0?0@3@@Z ; Eigen::internal::checkTransposeAliasing_impl<Eigen::Block<Eigen::Matrix<double,-1,-1,0,-1,-1>,-1,-1,0>,Eigen::Matrix<double,-1,-1,0,-1,-1>,0>::run
PUBLIC	?run@?$checkTransposeAliasing_impl@V?$Block@V?$Matrix@N$0?0$00$0A@$0?0$00@Eigen@@$0?0$0?0$0A@@Eigen@@V?$Matrix@N$0?0$00$0A@$0?0$00@2@$0A@@internal@Eigen@@SAXAEBV?$Block@V?$Matrix@N$0?0$00$0A@$0?0$00@Eigen@@$0?0$0?0$0A@@3@AEBV?$Matrix@N$0?0$00$0A@$0?0$00@3@@Z ; Eigen::internal::checkTransposeAliasing_impl<Eigen::Block<Eigen::Matrix<double,-1,1,0,-1,1>,-1,-1,0>,Eigen::Matrix<double,-1,1,0,-1,1>,0>::run
PUBLIC	?cols@?$SelfCwiseBinaryOp@U?$scalar_sum_op@N@internal@Eigen@@V?$Matrix@N$0?0$00$0A@$0?0$00@3@V?$Block@V?$Matrix@N$0?0$00$0A@$0?0$00@Eigen@@$0?0$0?0$0A@@3@@Eigen@@QEBA_JXZ ; Eigen::SelfCwiseBinaryOp<Eigen::internal::scalar_sum_op<double>,Eigen::Matrix<double,-1,1,0,-1,1>,Eigen::Block<Eigen::Matrix<double,-1,1,0,-1,1>,-1,-1,0> >::cols
PUBLIC	?rows@?$SelfCwiseBinaryOp@U?$scalar_sum_op@N@internal@Eigen@@V?$Matrix@N$0?0$00$0A@$0?0$00@3@V?$Block@V?$Matrix@N$0?0$00$0A@$0?0$00@Eigen@@$0?0$0?0$0A@@3@@Eigen@@QEBA_JXZ ; Eigen::SelfCwiseBinaryOp<Eigen::internal::scalar_sum_op<double>,Eigen::Matrix<double,-1,1,0,-1,1>,Eigen::Block<Eigen::Matrix<double,-1,1,0,-1,1>,-1,-1,0> >::rows
PUBLIC	?colIndexByOuterInner@?$DenseCoeffsBase@V?$Block@V?$Matrix@N$0?0$0?0$0A@$0?0$0?0@Eigen@@$0?0$0?0$0A@@Eigen@@$0A@@Eigen@@QEBA_J_J0@Z ; Eigen::DenseCoeffsBase<Eigen::Block<Eigen::Matrix<double,-1,-1,0,-1,-1>,-1,-1,0>,0>::colIndexByOuterInner
PUBLIC	?rowIndexByOuterInner@?$DenseCoeffsBase@V?$Block@V?$Matrix@N$0?0$0?0$0A@$0?0$0?0@Eigen@@$0?0$0?0$0A@@Eigen@@$0A@@Eigen@@QEBA_J_J0@Z ; Eigen::DenseCoeffsBase<Eigen::Block<Eigen::Matrix<double,-1,-1,0,-1,-1>,-1,-1,0>,0>::rowIndexByOuterInner
PUBLIC	?colIndexByOuterInner@?$DenseCoeffsBase@V?$Block@V?$Matrix@N$0?0$00$0A@$0?0$00@Eigen@@$0?0$0?0$0A@@Eigen@@$0A@@Eigen@@QEBA_J_J0@Z ; Eigen::DenseCoeffsBase<Eigen::Block<Eigen::Matrix<double,-1,1,0,-1,1>,-1,-1,0>,0>::colIndexByOuterInner
PUBLIC	?rowIndexByOuterInner@?$DenseCoeffsBase@V?$Block@V?$Matrix@N$0?0$00$0A@$0?0$00@Eigen@@$0?0$0?0$0A@@Eigen@@$0A@@Eigen@@QEBA_J_J0@Z ; Eigen::DenseCoeffsBase<Eigen::Block<Eigen::Matrix<double,-1,1,0,-1,1>,-1,-1,0>,0>::rowIndexByOuterInner
PUBLIC	??$copyCoeffByOuterInner@V?$Transpose@V?$Matrix@N$0?0$0?0$0A@$0?0$0?0@Eigen@@@Eigen@@@?$DenseCoeffsBase@V?$Block@V?$Matrix@N$0?0$0?0$0A@$0?0$0?0@Eigen@@$0?0$0?0$0A@@Eigen@@$00@Eigen@@QEAAX_J0AEBV?$DenseBase@V?$Transpose@V?$Matrix@N$0?0$0?0$0A@$0?0$0?0@Eigen@@@Eigen@@@1@@Z ; Eigen::DenseCoeffsBase<Eigen::Block<Eigen::Matrix<double,-1,-1,0,-1,-1>,-1,-1,0>,1>::copyCoeffByOuterInner<Eigen::Transpose<Eigen::Matrix<double,-1,-1,0,-1,-1> > >
PUBLIC	??$copyPacketByOuterInner@V?$Matrix@N$0?0$0?0$0A@$0?0$0?0@Eigen@@$00$0A@@?$DenseCoeffsBase@V?$Block@V?$Matrix@N$0?0$0?0$0A@$0?0$0?0@Eigen@@$0?0$0?0$0A@@Eigen@@$00@Eigen@@QEAAX_J0AEBV?$DenseBase@V?$Matrix@N$0?0$0?0$0A@$0?0$0?0@Eigen@@@1@@Z ; Eigen::DenseCoeffsBase<Eigen::Block<Eigen::Matrix<double,-1,-1,0,-1,-1>,-1,-1,0>,1>::copyPacketByOuterInner<Eigen::Matrix<double,-1,-1,0,-1,-1>,1,0>
PUBLIC	??$copyCoeffByOuterInner@V?$Matrix@N$0?0$0?0$0A@$0?0$0?0@Eigen@@@?$DenseCoeffsBase@V?$Block@V?$Matrix@N$0?0$0?0$0A@$0?0$0?0@Eigen@@$0?0$0?0$0A@@Eigen@@$00@Eigen@@QEAAX_J0AEBV?$DenseBase@V?$Matrix@N$0?0$0?0$0A@$0?0$0?0@Eigen@@@1@@Z ; Eigen::DenseCoeffsBase<Eigen::Block<Eigen::Matrix<double,-1,-1,0,-1,-1>,-1,-1,0>,1>::copyCoeffByOuterInner<Eigen::Matrix<double,-1,-1,0,-1,-1> >
PUBLIC	??$copyPacketByOuterInner@V?$Matrix@N$0?0$00$0A@$0?0$00@Eigen@@$00$0A@@?$DenseCoeffsBase@V?$Block@V?$Matrix@N$0?0$00$0A@$0?0$00@Eigen@@$0?0$0?0$0A@@Eigen@@$00@Eigen@@QEAAX_J0AEBV?$DenseBase@V?$Matrix@N$0?0$00$0A@$0?0$00@Eigen@@@1@@Z ; Eigen::DenseCoeffsBase<Eigen::Block<Eigen::Matrix<double,-1,1,0,-1,1>,-1,-1,0>,1>::copyPacketByOuterInner<Eigen::Matrix<double,-1,1,0,-1,1>,1,0>
PUBLIC	??$copyCoeffByOuterInner@V?$Matrix@N$0?0$00$0A@$0?0$00@Eigen@@@?$DenseCoeffsBase@V?$Block@V?$Matrix@N$0?0$00$0A@$0?0$00@Eigen@@$0?0$0?0$0A@@Eigen@@$00@Eigen@@QEAAX_J0AEBV?$DenseBase@V?$Matrix@N$0?0$00$0A@$0?0$00@Eigen@@@1@@Z ; Eigen::DenseCoeffsBase<Eigen::Block<Eigen::Matrix<double,-1,1,0,-1,1>,-1,-1,0>,1>::copyCoeffByOuterInner<Eigen::Matrix<double,-1,1,0,-1,1> >
PUBLIC	??$lazyAssign@V?$Block@V?$Matrix@N$0?0$00$0A@$0?0$00@Eigen@@$0?0$0?0$0A@@Eigen@@@?$SelfCwiseBinaryOp@U?$scalar_sum_op@N@internal@Eigen@@V?$Matrix@N$0?0$00$0A@$0?0$00@3@V?$Block@V?$Matrix@N$0?0$00$0A@$0?0$00@Eigen@@$0?0$0?0$0A@@3@@Eigen@@QEAAAEAV01@AEBV?$DenseBase@V?$Block@V?$Matrix@N$0?0$00$0A@$0?0$00@Eigen@@$0?0$0?0$0A@@Eigen@@@1@@Z ; Eigen::SelfCwiseBinaryOp<Eigen::internal::scalar_sum_op<double>,Eigen::Matrix<double,-1,1,0,-1,1>,Eigen::Block<Eigen::Matrix<double,-1,1,0,-1,1>,-1,-1,0> >::lazyAssign<Eigen::Block<Eigen::Matrix<double,-1,1,0,-1,1>,-1,-1,0> >
PUBLIC	??$lazyAssign@V?$Matrix@N$0?0$00$0A@$0?0$00@Eigen@@@?$PlainObjectBase@V?$Matrix@N$0?0$0?0$0A@$0?0$0?0@Eigen@@@Eigen@@QEAAAEAV?$Matrix@N$0?0$0?0$0A@$0?0$0?0@1@AEBV?$DenseBase@V?$Matrix@N$0?0$00$0A@$0?0$00@Eigen@@@1@@Z ; Eigen::PlainObjectBase<Eigen::Matrix<double,-1,-1,0,-1,-1> >::lazyAssign<Eigen::Matrix<double,-1,1,0,-1,1> >
PUBLIC	??$lazyAssign@V?$GeneralProduct@V?$Matrix@N$0?0$0?0$0A@$0?0$0?0@Eigen@@V?$MatrixWrapper@$$CBV?$CwiseUnaryOp@U?$scalar_exp_op@N@internal@Eigen@@$$CBV?$ArrayWrapper@V?$Matrix@N$0?0$00$0A@$0?0$00@Eigen@@@3@@Eigen@@@2@$03@Eigen@@@?$PlainObjectBase@V?$Matrix@N$0?0$00$0A@$0?0$00@Eigen@@@Eigen@@QEAAAEAV?$Matrix@N$0?0$00$0A@$0?0$00@1@AEBV?$DenseBase@V?$GeneralProduct@V?$Matrix@N$0?0$0?0$0A@$0?0$0?0@Eigen@@V?$MatrixWrapper@$$CBV?$CwiseUnaryOp@U?$scalar_exp_op@N@internal@Eigen@@$$CBV?$ArrayWrapper@V?$Matrix@N$0?0$00$0A@$0?0$00@Eigen@@@3@@Eigen@@@2@$03@Eigen@@@1@@Z ; Eigen::PlainObjectBase<Eigen::Matrix<double,-1,1,0,-1,1> >::lazyAssign<Eigen::GeneralProduct<Eigen::Matrix<double,-1,-1,0,-1,-1>,Eigen::MatrixWrapper<Eigen::CwiseUnaryOp<Eigen::internal::scalar_exp_op<double>,Eigen::ArrayWrapper<Eigen::Matrix<double,-1,1,0,-1,1> > const > const >,4> >
PUBLIC	??$lazyAssign@V?$GeneralProduct@V?$Matrix@N$0?0$0?0$0A@$0?0$0?0@Eigen@@V?$MatrixWrapper@$$CBV?$CwiseUnaryOp@U?$scalar_exp_op@N@internal@Eigen@@$$CBV?$ArrayWrapper@$$CBV?$Matrix@N$0?0$00$0A@$0?0$00@Eigen@@@3@@Eigen@@@2@$03@Eigen@@@?$PlainObjectBase@V?$Matrix@N$0?0$00$0A@$0?0$00@Eigen@@@Eigen@@QEAAAEAV?$Matrix@N$0?0$00$0A@$0?0$00@1@AEBV?$DenseBase@V?$GeneralProduct@V?$Matrix@N$0?0$0?0$0A@$0?0$0?0@Eigen@@V?$MatrixWrapper@$$CBV?$CwiseUnaryOp@U?$scalar_exp_op@N@internal@Eigen@@$$CBV?$ArrayWrapper@$$CBV?$Matrix@N$0?0$00$0A@$0?0$00@Eigen@@@3@@Eigen@@@2@$03@Eigen@@@1@@Z ; Eigen::PlainObjectBase<Eigen::Matrix<double,-1,1,0,-1,1> >::lazyAssign<Eigen::GeneralProduct<Eigen::Matrix<double,-1,-1,0,-1,-1>,Eigen::MatrixWrapper<Eigen::CwiseUnaryOp<Eigen::internal::scalar_exp_op<double>,Eigen::ArrayWrapper<Eigen::Matrix<double,-1,1,0,-1,1> const > const > const >,4> >
PUBLIC	??$checkTransposeAliasing@V?$Transpose@V?$Matrix@N$0?0$0?0$0A@$0?0$0?0@Eigen@@@Eigen@@@?$DenseBase@V?$Block@V?$Matrix@N$0?0$0?0$0A@$0?0$0?0@Eigen@@$0?0$0?0$0A@@Eigen@@@Eigen@@IEBAXAEBV?$Transpose@V?$Matrix@N$0?0$0?0$0A@$0?0$0?0@Eigen@@@1@@Z ; Eigen::DenseBase<Eigen::Block<Eigen::Matrix<double,-1,-1,0,-1,-1>,-1,-1,0> >::checkTransposeAliasing<Eigen::Transpose<Eigen::Matrix<double,-1,-1,0,-1,-1> > >
PUBLIC	??$checkTransposeAliasing@V?$Matrix@N$0?0$0?0$0A@$0?0$0?0@Eigen@@@?$DenseBase@V?$Block@V?$Matrix@N$0?0$0?0$0A@$0?0$0?0@Eigen@@$0?0$0?0$0A@@Eigen@@@Eigen@@IEBAXAEBV?$Matrix@N$0?0$0?0$0A@$0?0$0?0@1@@Z ; Eigen::DenseBase<Eigen::Block<Eigen::Matrix<double,-1,-1,0,-1,-1>,-1,-1,0> >::checkTransposeAliasing<Eigen::Matrix<double,-1,-1,0,-1,-1> >
PUBLIC	??$checkTransposeAliasing@V?$Matrix@N$0?0$00$0A@$0?0$00@Eigen@@@?$DenseBase@V?$Block@V?$Matrix@N$0?0$00$0A@$0?0$00@Eigen@@$0?0$0?0$0A@@Eigen@@@Eigen@@IEBAXAEBV?$Matrix@N$0?0$00$0A@$0?0$00@1@@Z ; Eigen::DenseBase<Eigen::Block<Eigen::Matrix<double,-1,1,0,-1,1>,-1,-1,0> >::checkTransposeAliasing<Eigen::Matrix<double,-1,1,0,-1,1> >
PUBLIC	??$_set_selector@V?$CwiseUnaryOp@U?$scalar_opposite_op@N@internal@Eigen@@$$CBV?$ReturnByValue@U?$solve_retval_base@V?$PartialPivLU@V?$Matrix@N$0?0$0?0$0A@$0?0$0?0@Eigen@@@Eigen@@V?$Matrix@N$0?0$00$0A@$0?0$00@2@@internal@Eigen@@@3@@Eigen@@@?$PlainObjectBase@V?$Matrix@N$0?0$00$0A@$0?0$00@Eigen@@@Eigen@@IEAAXAEBV?$CwiseUnaryOp@U?$scalar_opposite_op@N@internal@Eigen@@$$CBV?$ReturnByValue@U?$solve_retval_base@V?$PartialPivLU@V?$Matrix@N$0?0$0?0$0A@$0?0$0?0@Eigen@@@Eigen@@V?$Matrix@N$0?0$00$0A@$0?0$00@2@@internal@Eigen@@@3@@1@AEBUfalse_type@internal@1@@Z ; Eigen::PlainObjectBase<Eigen::Matrix<double,-1,1,0,-1,1> >::_set_selector<Eigen::CwiseUnaryOp<Eigen::internal::scalar_opposite_op<double>,Eigen::ReturnByValue<Eigen::internal::solve_retval_base<Eigen::PartialPivLU<Eigen::Matrix<double,-1,-1,0,-1,-1> >,Eigen::Matrix<double,-1,1,0,-1,1> > > const > >
PUBLIC	?innerStride@?$BlockImpl_dense@V?$Matrix@N$0?0$0?0$0A@$0?0$0?0@Eigen@@$0?0$0?0$0A@$00@internal@Eigen@@QEBA_JXZ ; Eigen::internal::BlockImpl_dense<Eigen::Matrix<double,-1,-1,0,-1,-1>,-1,-1,0,1>::innerStride
PUBLIC	?innerStride@?$BlockImpl_dense@V?$Matrix@N$0?0$00$0A@$0?0$00@Eigen@@$0?0$0?0$0A@$00@internal@Eigen@@QEBA_JXZ ; Eigen::internal::BlockImpl_dense<Eigen::Matrix<double,-1,1,0,-1,1>,-1,-1,0,1>::innerStride
PUBLIC	?outerStride@?$DenseCoeffsBase@V?$Block@V?$Matrix@N$0?0$0?0$0A@$0?0$0?0@Eigen@@$0?0$0?0$0A@@Eigen@@$02@Eigen@@QEBA_JXZ ; Eigen::DenseCoeffsBase<Eigen::Block<Eigen::Matrix<double,-1,-1,0,-1,-1>,-1,-1,0>,3>::outerStride
PUBLIC	?innerStride@?$DenseCoeffsBase@V?$Block@V?$Matrix@N$0?0$0?0$0A@$0?0$0?0@Eigen@@$0?0$0?0$0A@@Eigen@@$02@Eigen@@QEBA_JXZ ; Eigen::DenseCoeffsBase<Eigen::Block<Eigen::Matrix<double,-1,-1,0,-1,-1>,-1,-1,0>,3>::innerStride
PUBLIC	?outerStride@?$DenseCoeffsBase@V?$Block@V?$Matrix@N$0?0$00$0A@$0?0$00@Eigen@@$0?0$0?0$0A@@Eigen@@$02@Eigen@@QEBA_JXZ ; Eigen::DenseCoeffsBase<Eigen::Block<Eigen::Matrix<double,-1,1,0,-1,1>,-1,-1,0>,3>::outerStride
PUBLIC	?innerStride@?$DenseCoeffsBase@V?$Block@V?$Matrix@N$0?0$00$0A@$0?0$00@Eigen@@$0?0$0?0$0A@@Eigen@@$02@Eigen@@QEBA_JXZ ; Eigen::DenseCoeffsBase<Eigen::Block<Eigen::Matrix<double,-1,1,0,-1,1>,-1,-1,0>,3>::innerStride
PUBLIC	?size@?$EigenBase@V?$Block@V?$Matrix@N$0?0$0?0$0A@$0?0$0?0@Eigen@@$0?0$0?0$0A@@Eigen@@@Eigen@@QEBA_JXZ ; Eigen::EigenBase<Eigen::Block<Eigen::Matrix<double,-1,-1,0,-1,-1>,-1,-1,0> >::size
PUBLIC	?colStride@?$DenseCoeffsBase@V?$Block@V?$Matrix@N$0?0$0?0$0A@$0?0$0?0@Eigen@@$0?0$0?0$0A@@Eigen@@$02@Eigen@@QEBA_JXZ ; Eigen::DenseCoeffsBase<Eigen::Block<Eigen::Matrix<double,-1,-1,0,-1,-1>,-1,-1,0>,3>::colStride
PUBLIC	?rowStride@?$DenseCoeffsBase@V?$Block@V?$Matrix@N$0?0$0?0$0A@$0?0$0?0@Eigen@@$0?0$0?0$0A@@Eigen@@$02@Eigen@@QEBA_JXZ ; Eigen::DenseCoeffsBase<Eigen::Block<Eigen::Matrix<double,-1,-1,0,-1,-1>,-1,-1,0>,3>::rowStride
PUBLIC	?size@?$EigenBase@V?$Block@V?$Matrix@N$0?0$00$0A@$0?0$00@Eigen@@$0?0$0?0$0A@@Eigen@@@Eigen@@QEBA_JXZ ; Eigen::EigenBase<Eigen::Block<Eigen::Matrix<double,-1,1,0,-1,1>,-1,-1,0> >::size
PUBLIC	?colStride@?$DenseCoeffsBase@V?$Block@V?$Matrix@N$0?0$00$0A@$0?0$00@Eigen@@$0?0$0?0$0A@@Eigen@@$02@Eigen@@QEBA_JXZ ; Eigen::DenseCoeffsBase<Eigen::Block<Eigen::Matrix<double,-1,1,0,-1,1>,-1,-1,0>,3>::colStride
PUBLIC	?rowStride@?$DenseCoeffsBase@V?$Block@V?$Matrix@N$0?0$00$0A@$0?0$00@Eigen@@$0?0$0?0$0A@@Eigen@@$02@Eigen@@QEBA_JXZ ; Eigen::DenseCoeffsBase<Eigen::Block<Eigen::Matrix<double,-1,1,0,-1,1>,-1,-1,0>,3>::rowStride
PUBLIC	?derived@?$EigenBase@V?$Block@V?$Matrix@N$0?0$0?0$0A@$0?0$0?0@Eigen@@$0?0$0?0$0A@@Eigen@@@Eigen@@QEBAAEBV?$Block@V?$Matrix@N$0?0$0?0$0A@$0?0$0?0@Eigen@@$0?0$0?0$0A@@2@XZ ; Eigen::EigenBase<Eigen::Block<Eigen::Matrix<double,-1,-1,0,-1,-1>,-1,-1,0> >::derived
PUBLIC	?innerSize@?$DenseBase@V?$Block@V?$Matrix@N$0?0$0?0$0A@$0?0$0?0@Eigen@@$0?0$0?0$0A@@Eigen@@@Eigen@@QEBA_JXZ ; Eigen::DenseBase<Eigen::Block<Eigen::Matrix<double,-1,-1,0,-1,-1>,-1,-1,0> >::innerSize
PUBLIC	?outerSize@?$DenseBase@V?$Block@V?$Matrix@N$0?0$0?0$0A@$0?0$0?0@Eigen@@$0?0$0?0$0A@@Eigen@@@Eigen@@QEBA_JXZ ; Eigen::DenseBase<Eigen::Block<Eigen::Matrix<double,-1,-1,0,-1,-1>,-1,-1,0> >::outerSize
PUBLIC	?cols@?$MapBase@V?$Block@V?$Matrix@N$0?0$0?0$0A@$0?0$0?0@Eigen@@$0?0$0?0$0A@@Eigen@@$0A@@Eigen@@QEBA_JXZ ; Eigen::MapBase<Eigen::Block<Eigen::Matrix<double,-1,-1,0,-1,-1>,-1,-1,0>,0>::cols
PUBLIC	?rows@?$MapBase@V?$Block@V?$Matrix@N$0?0$0?0$0A@$0?0$0?0@Eigen@@$0?0$0?0$0A@@Eigen@@$0A@@Eigen@@QEBA_JXZ ; Eigen::MapBase<Eigen::Block<Eigen::Matrix<double,-1,-1,0,-1,-1>,-1,-1,0>,0>::rows
PUBLIC	?coeffRef@?$MapBase@V?$Block@V?$Matrix@N$0?0$0?0$0A@$0?0$0?0@Eigen@@$0?0$0?0$0A@@Eigen@@$00@Eigen@@QEAAAEAN_J0@Z ; Eigen::MapBase<Eigen::Block<Eigen::Matrix<double,-1,-1,0,-1,-1>,-1,-1,0>,1>::coeffRef
PUBLIC	?outerStride@?$BlockImpl_dense@V?$Matrix@N$0?0$0?0$0A@$0?0$0?0@Eigen@@$0?0$0?0$0A@$00@internal@Eigen@@QEBA_JXZ ; Eigen::internal::BlockImpl_dense<Eigen::Matrix<double,-1,-1,0,-1,-1>,-1,-1,0,1>::outerStride
PUBLIC	?innerSize@?$DenseBase@V?$Block@V?$Matrix@N$0?0$00$0A@$0?0$00@Eigen@@$0?0$0?0$0A@@Eigen@@@Eigen@@QEBA_JXZ ; Eigen::DenseBase<Eigen::Block<Eigen::Matrix<double,-1,1,0,-1,1>,-1,-1,0> >::innerSize
PUBLIC	?outerSize@?$DenseBase@V?$Block@V?$Matrix@N$0?0$00$0A@$0?0$00@Eigen@@$0?0$0?0$0A@@Eigen@@@Eigen@@QEBA_JXZ ; Eigen::DenseBase<Eigen::Block<Eigen::Matrix<double,-1,1,0,-1,1>,-1,-1,0> >::outerSize
PUBLIC	?cols@?$MapBase@V?$Block@V?$Matrix@N$0?0$00$0A@$0?0$00@Eigen@@$0?0$0?0$0A@@Eigen@@$0A@@Eigen@@QEBA_JXZ ; Eigen::MapBase<Eigen::Block<Eigen::Matrix<double,-1,1,0,-1,1>,-1,-1,0>,0>::cols
PUBLIC	?rows@?$MapBase@V?$Block@V?$Matrix@N$0?0$00$0A@$0?0$00@Eigen@@$0?0$0?0$0A@@Eigen@@$0A@@Eigen@@QEBA_JXZ ; Eigen::MapBase<Eigen::Block<Eigen::Matrix<double,-1,1,0,-1,1>,-1,-1,0>,0>::rows
PUBLIC	?coeffRef@?$MapBase@V?$Block@V?$Matrix@N$0?0$00$0A@$0?0$00@Eigen@@$0?0$0?0$0A@@Eigen@@$00@Eigen@@QEAAAEAN_J0@Z ; Eigen::MapBase<Eigen::Block<Eigen::Matrix<double,-1,1,0,-1,1>,-1,-1,0>,1>::coeffRef
PUBLIC	?outerStride@?$BlockImpl_dense@V?$Matrix@N$0?0$00$0A@$0?0$00@Eigen@@$0?0$0?0$0A@$00@internal@Eigen@@QEBA_JXZ ; Eigen::internal::BlockImpl_dense<Eigen::Matrix<double,-1,1,0,-1,1>,-1,-1,0,1>::outerStride
PUBLIC	?run@?$assign_impl@V?$Block@V?$Matrix@N$0?0$0?0$0A@$0?0$0?0@Eigen@@$0?0$0?0$0A@@Eigen@@V?$Transpose@V?$Matrix@N$0?0$0?0$0A@$0?0$0?0@Eigen@@@2@$0A@$0A@$0A@@internal@Eigen@@SAXAEAV?$Block@V?$Matrix@N$0?0$0?0$0A@$0?0$0?0@Eigen@@$0?0$0?0$0A@@3@AEBV?$Transpose@V?$Matrix@N$0?0$0?0$0A@$0?0$0?0@Eigen@@@3@@Z ; Eigen::internal::assign_impl<Eigen::Block<Eigen::Matrix<double,-1,-1,0,-1,-1>,-1,-1,0>,Eigen::Transpose<Eigen::Matrix<double,-1,-1,0,-1,-1> >,0,0,0>::run
PUBLIC	?run@?$assign_impl@V?$Block@V?$Matrix@N$0?0$0?0$0A@$0?0$0?0@Eigen@@$0?0$0?0$0A@@Eigen@@V?$Matrix@N$0?0$0?0$0A@$0?0$0?0@2@$03$0A@$0A@@internal@Eigen@@SAXAEAV?$Block@V?$Matrix@N$0?0$0?0$0A@$0?0$0?0@Eigen@@$0?0$0?0$0A@@3@AEBV?$Matrix@N$0?0$0?0$0A@$0?0$0?0@3@@Z ; Eigen::internal::assign_impl<Eigen::Block<Eigen::Matrix<double,-1,-1,0,-1,-1>,-1,-1,0>,Eigen::Matrix<double,-1,-1,0,-1,-1>,4,0,0>::run
PUBLIC	?run@?$assign_impl@V?$Block@V?$Matrix@N$0?0$00$0A@$0?0$00@Eigen@@$0?0$0?0$0A@@Eigen@@V?$Matrix@N$0?0$00$0A@$0?0$00@2@$03$0A@$0A@@internal@Eigen@@SAXAEAV?$Block@V?$Matrix@N$0?0$00$0A@$0?0$00@Eigen@@$0?0$0?0$0A@@3@AEBV?$Matrix@N$0?0$00$0A@$0?0$00@3@@Z ; Eigen::internal::assign_impl<Eigen::Block<Eigen::Matrix<double,-1,1,0,-1,1>,-1,-1,0>,Eigen::Matrix<double,-1,1,0,-1,1>,4,0,0>::run
PUBLIC	?run@?$assign_selector@V?$SelfCwiseBinaryOp@U?$scalar_sum_op@N@internal@Eigen@@V?$Matrix@N$0?0$00$0A@$0?0$00@3@V?$Block@V?$Matrix@N$0?0$00$0A@$0?0$00@Eigen@@$0?0$0?0$0A@@3@@Eigen@@V?$Block@V?$Matrix@N$0?0$00$0A@$0?0$00@Eigen@@$0?0$0?0$0A@@2@$0A@$0A@@internal@Eigen@@SAAEAV?$SelfCwiseBinaryOp@U?$scalar_sum_op@N@internal@Eigen@@V?$Matrix@N$0?0$00$0A@$0?0$00@3@V?$Block@V?$Matrix@N$0?0$00$0A@$0?0$00@Eigen@@$0?0$0?0$0A@@3@@3@AEAV43@AEBV?$Block@V?$Matrix@N$0?0$00$0A@$0?0$00@Eigen@@$0?0$0?0$0A@@3@@Z ; Eigen::internal::assign_selector<Eigen::SelfCwiseBinaryOp<Eigen::internal::scalar_sum_op<double>,Eigen::Matrix<double,-1,1,0,-1,1>,Eigen::Block<Eigen::Matrix<double,-1,1,0,-1,1>,-1,-1,0> >,Eigen::Block<Eigen::Matrix<double,-1,1,0,-1,1>,-1,-1,0>,0,0>::run
PUBLIC	?run@?$assign_selector@V?$Matrix@N$0?0$0?0$0A@$0?0$0?0@Eigen@@V?$Matrix@N$0?0$00$0A@$0?0$00@2@$0A@$0A@@internal@Eigen@@SAAEAV?$Matrix@N$0?0$0?0$0A@$0?0$0?0@3@AEAV43@AEBV?$Matrix@N$0?0$00$0A@$0?0$00@3@@Z ; Eigen::internal::assign_selector<Eigen::Matrix<double,-1,-1,0,-1,-1>,Eigen::Matrix<double,-1,1,0,-1,1>,0,0>::run
PUBLIC	?run@?$assign_selector@V?$Matrix@N$0?0$00$0A@$0?0$00@Eigen@@V?$GeneralProduct@V?$Matrix@N$0?0$0?0$0A@$0?0$0?0@Eigen@@V?$MatrixWrapper@$$CBV?$CwiseUnaryOp@U?$scalar_exp_op@N@internal@Eigen@@$$CBV?$ArrayWrapper@V?$Matrix@N$0?0$00$0A@$0?0$00@Eigen@@@3@@Eigen@@@2@$03@2@$0A@$0A@@internal@Eigen@@SAAEAV?$Matrix@N$0?0$00$0A@$0?0$00@3@AEAV43@AEBV?$GeneralProduct@V?$Matrix@N$0?0$0?0$0A@$0?0$0?0@Eigen@@V?$MatrixWrapper@$$CBV?$CwiseUnaryOp@U?$scalar_exp_op@N@internal@Eigen@@$$CBV?$ArrayWrapper@V?$Matrix@N$0?0$00$0A@$0?0$00@Eigen@@@3@@Eigen@@@2@$03@3@@Z ; Eigen::internal::assign_selector<Eigen::Matrix<double,-1,1,0,-1,1>,Eigen::GeneralProduct<Eigen::Matrix<double,-1,-1,0,-1,-1>,Eigen::MatrixWrapper<Eigen::CwiseUnaryOp<Eigen::internal::scalar_exp_op<double>,Eigen::ArrayWrapper<Eigen::Matrix<double,-1,1,0,-1,1> > const > const >,4>,0,0>::run
PUBLIC	?run@?$assign_selector@V?$Matrix@N$0?0$00$0A@$0?0$00@Eigen@@V?$GeneralProduct@V?$Matrix@N$0?0$0?0$0A@$0?0$0?0@Eigen@@V?$MatrixWrapper@$$CBV?$CwiseUnaryOp@U?$scalar_exp_op@N@internal@Eigen@@$$CBV?$ArrayWrapper@$$CBV?$Matrix@N$0?0$00$0A@$0?0$00@Eigen@@@3@@Eigen@@@2@$03@2@$0A@$0A@@internal@Eigen@@SAAEAV?$Matrix@N$0?0$00$0A@$0?0$00@3@AEAV43@AEBV?$GeneralProduct@V?$Matrix@N$0?0$0?0$0A@$0?0$0?0@Eigen@@V?$MatrixWrapper@$$CBV?$CwiseUnaryOp@U?$scalar_exp_op@N@internal@Eigen@@$$CBV?$ArrayWrapper@$$CBV?$Matrix@N$0?0$00$0A@$0?0$00@Eigen@@@3@@Eigen@@@2@$03@3@@Z ; Eigen::internal::assign_selector<Eigen::Matrix<double,-1,1,0,-1,1>,Eigen::GeneralProduct<Eigen::Matrix<double,-1,-1,0,-1,-1>,Eigen::MatrixWrapper<Eigen::CwiseUnaryOp<Eigen::internal::scalar_exp_op<double>,Eigen::ArrayWrapper<Eigen::Matrix<double,-1,1,0,-1,1> const > const > const >,4>,0,0>::run
PUBLIC	?derived@?$EigenBase@V?$SelfCwiseBinaryOp@U?$scalar_sum_op@N@internal@Eigen@@V?$Matrix@N$0?0$00$0A@$0?0$00@3@V?$Block@V?$Matrix@N$0?0$00$0A@$0?0$00@Eigen@@$0?0$0?0$0A@@3@@Eigen@@@Eigen@@QEAAAEAV?$SelfCwiseBinaryOp@U?$scalar_sum_op@N@internal@Eigen@@V?$Matrix@N$0?0$00$0A@$0?0$00@3@V?$Block@V?$Matrix@N$0?0$00$0A@$0?0$00@Eigen@@$0?0$0?0$0A@@3@@2@XZ ; Eigen::EigenBase<Eigen::SelfCwiseBinaryOp<Eigen::internal::scalar_sum_op<double>,Eigen::Matrix<double,-1,1,0,-1,1>,Eigen::Block<Eigen::Matrix<double,-1,1,0,-1,1>,-1,-1,0> > >::derived
PUBLIC	?cols@?$EigenBase@V?$Block@V?$Matrix@N$0?0$0?0$0A@$0?0$0?0@Eigen@@$0?0$0?0$0A@@Eigen@@@Eigen@@QEBA_JXZ ; Eigen::EigenBase<Eigen::Block<Eigen::Matrix<double,-1,-1,0,-1,-1>,-1,-1,0> >::cols
PUBLIC	?rows@?$EigenBase@V?$Block@V?$Matrix@N$0?0$0?0$0A@$0?0$0?0@Eigen@@$0?0$0?0$0A@@Eigen@@@Eigen@@QEBA_JXZ ; Eigen::EigenBase<Eigen::Block<Eigen::Matrix<double,-1,-1,0,-1,-1>,-1,-1,0> >::rows
PUBLIC	?cols@?$EigenBase@V?$Transpose@V?$Matrix@N$0?0$0?0$0A@$0?0$0?0@Eigen@@@Eigen@@@Eigen@@QEBA_JXZ ; Eigen::EigenBase<Eigen::Transpose<Eigen::Matrix<double,-1,-1,0,-1,-1> > >::cols
PUBLIC	?rows@?$EigenBase@V?$Transpose@V?$Matrix@N$0?0$0?0$0A@$0?0$0?0@Eigen@@@Eigen@@@Eigen@@QEBA_JXZ ; Eigen::EigenBase<Eigen::Transpose<Eigen::Matrix<double,-1,-1,0,-1,-1> > >::rows
PUBLIC	?cols@?$EigenBase@V?$Block@V?$Matrix@N$0?0$00$0A@$0?0$00@Eigen@@$0?0$0?0$0A@@Eigen@@@Eigen@@QEBA_JXZ ; Eigen::EigenBase<Eigen::Block<Eigen::Matrix<double,-1,1,0,-1,1>,-1,-1,0> >::cols
PUBLIC	?rows@?$EigenBase@V?$Block@V?$Matrix@N$0?0$00$0A@$0?0$00@Eigen@@$0?0$0?0$0A@@Eigen@@@Eigen@@QEBA_JXZ ; Eigen::EigenBase<Eigen::Block<Eigen::Matrix<double,-1,1,0,-1,1>,-1,-1,0> >::rows
PUBLIC	??$lazyAssign@V?$Transpose@V?$Matrix@N$0?0$0?0$0A@$0?0$0?0@Eigen@@@Eigen@@@?$DenseBase@V?$Block@V?$Matrix@N$0?0$0?0$0A@$0?0$0?0@Eigen@@$0?0$0?0$0A@@Eigen@@@Eigen@@QEAAAEAV?$Block@V?$Matrix@N$0?0$0?0$0A@$0?0$0?0@Eigen@@$0?0$0?0$0A@@1@AEBV?$DenseBase@V?$Transpose@V?$Matrix@N$0?0$0?0$0A@$0?0$0?0@Eigen@@@Eigen@@@1@@Z ; Eigen::DenseBase<Eigen::Block<Eigen::Matrix<double,-1,-1,0,-1,-1>,-1,-1,0> >::lazyAssign<Eigen::Transpose<Eigen::Matrix<double,-1,-1,0,-1,-1> > >
PUBLIC	??$lazyAssign@V?$Matrix@N$0?0$0?0$0A@$0?0$0?0@Eigen@@@?$DenseBase@V?$Block@V?$Matrix@N$0?0$0?0$0A@$0?0$0?0@Eigen@@$0?0$0?0$0A@@Eigen@@@Eigen@@QEAAAEAV?$Block@V?$Matrix@N$0?0$0?0$0A@$0?0$0?0@Eigen@@$0?0$0?0$0A@@1@AEBV?$DenseBase@V?$Matrix@N$0?0$0?0$0A@$0?0$0?0@Eigen@@@1@@Z ; Eigen::DenseBase<Eigen::Block<Eigen::Matrix<double,-1,-1,0,-1,-1>,-1,-1,0> >::lazyAssign<Eigen::Matrix<double,-1,-1,0,-1,-1> >
PUBLIC	??$lazyAssign@V?$Matrix@N$0?0$00$0A@$0?0$00@Eigen@@@?$DenseBase@V?$Block@V?$Matrix@N$0?0$00$0A@$0?0$00@Eigen@@$0?0$0?0$0A@@Eigen@@@Eigen@@QEAAAEAV?$Block@V?$Matrix@N$0?0$00$0A@$0?0$00@Eigen@@$0?0$0?0$0A@@1@AEBV?$DenseBase@V?$Matrix@N$0?0$00$0A@$0?0$00@Eigen@@@1@@Z ; Eigen::DenseBase<Eigen::Block<Eigen::Matrix<double,-1,1,0,-1,1>,-1,-1,0> >::lazyAssign<Eigen::Matrix<double,-1,1,0,-1,1> >
PUBLIC	??$?4V?$Block@V?$Matrix@N$0?0$00$0A@$0?0$00@Eigen@@$0?0$0?0$0A@@Eigen@@@?$MatrixBase@V?$SelfCwiseBinaryOp@U?$scalar_sum_op@N@internal@Eigen@@V?$Matrix@N$0?0$00$0A@$0?0$00@3@V?$Block@V?$Matrix@N$0?0$00$0A@$0?0$00@Eigen@@$0?0$0?0$0A@@3@@Eigen@@@Eigen@@QEAAAEAV?$SelfCwiseBinaryOp@U?$scalar_sum_op@N@internal@Eigen@@V?$Matrix@N$0?0$00$0A@$0?0$00@3@V?$Block@V?$Matrix@N$0?0$00$0A@$0?0$00@Eigen@@$0?0$0?0$0A@@3@@1@AEBV?$DenseBase@V?$Block@V?$Matrix@N$0?0$00$0A@$0?0$00@Eigen@@$0?0$0?0$0A@@Eigen@@@1@@Z ; Eigen::MatrixBase<Eigen::SelfCwiseBinaryOp<Eigen::internal::scalar_sum_op<double>,Eigen::Matrix<double,-1,1,0,-1,1>,Eigen::Block<Eigen::Matrix<double,-1,1,0,-1,1>,-1,-1,0> > >::operator=<Eigen::Block<Eigen::Matrix<double,-1,1,0,-1,1>,-1,-1,0> >
PUBLIC	??$_set_noalias@V?$Matrix@N$0?0$00$0A@$0?0$00@Eigen@@@?$PlainObjectBase@V?$Matrix@N$0?0$0?0$0A@$0?0$0?0@Eigen@@@Eigen@@IEAAAEAV?$Matrix@N$0?0$0?0$0A@$0?0$0?0@1@AEBV?$DenseBase@V?$Matrix@N$0?0$00$0A@$0?0$00@Eigen@@@1@@Z ; Eigen::PlainObjectBase<Eigen::Matrix<double,-1,-1,0,-1,-1> >::_set_noalias<Eigen::Matrix<double,-1,1,0,-1,1> >
PUBLIC	??$_set@V?$CwiseUnaryOp@U?$scalar_opposite_op@N@internal@Eigen@@$$CBV?$ReturnByValue@U?$solve_retval_base@V?$PartialPivLU@V?$Matrix@N$0?0$0?0$0A@$0?0$0?0@Eigen@@@Eigen@@V?$Matrix@N$0?0$00$0A@$0?0$00@2@@internal@Eigen@@@3@@Eigen@@@?$PlainObjectBase@V?$Matrix@N$0?0$00$0A@$0?0$00@Eigen@@@Eigen@@IEAAAEAV?$Matrix@N$0?0$00$0A@$0?0$00@1@AEBV?$DenseBase@V?$CwiseUnaryOp@U?$scalar_opposite_op@N@internal@Eigen@@$$CBV?$ReturnByValue@U?$solve_retval_base@V?$PartialPivLU@V?$Matrix@N$0?0$0?0$0A@$0?0$0?0@Eigen@@@Eigen@@V?$Matrix@N$0?0$00$0A@$0?0$00@2@@internal@Eigen@@@3@@Eigen@@@1@@Z ; Eigen::PlainObjectBase<Eigen::Matrix<double,-1,1,0,-1,1> >::_set<Eigen::CwiseUnaryOp<Eigen::internal::scalar_opposite_op<double>,Eigen::ReturnByValue<Eigen::internal::solve_retval_base<Eigen::PartialPivLU<Eigen::Matrix<double,-1,-1,0,-1,-1> >,Eigen::Matrix<double,-1,1,0,-1,1> > > const > >
PUBLIC	??$_set_noalias@V?$GeneralProduct@V?$Matrix@N$0?0$0?0$0A@$0?0$0?0@Eigen@@V?$MatrixWrapper@$$CBV?$CwiseUnaryOp@U?$scalar_exp_op@N@internal@Eigen@@$$CBV?$ArrayWrapper@V?$Matrix@N$0?0$00$0A@$0?0$00@Eigen@@@3@@Eigen@@@2@$03@Eigen@@@?$PlainObjectBase@V?$Matrix@N$0?0$00$0A@$0?0$00@Eigen@@@Eigen@@IEAAAEAV?$Matrix@N$0?0$00$0A@$0?0$00@1@AEBV?$DenseBase@V?$GeneralProduct@V?$Matrix@N$0?0$0?0$0A@$0?0$0?0@Eigen@@V?$MatrixWrapper@$$CBV?$CwiseUnaryOp@U?$scalar_exp_op@N@internal@Eigen@@$$CBV?$ArrayWrapper@V?$Matrix@N$0?0$00$0A@$0?0$00@Eigen@@@3@@Eigen@@@2@$03@Eigen@@@1@@Z ; Eigen::PlainObjectBase<Eigen::Matrix<double,-1,1,0,-1,1> >::_set_noalias<Eigen::GeneralProduct<Eigen::Matrix<double,-1,-1,0,-1,-1>,Eigen::MatrixWrapper<Eigen::CwiseUnaryOp<Eigen::internal::scalar_exp_op<double>,Eigen::ArrayWrapper<Eigen::Matrix<double,-1,1,0,-1,1> > const > const >,4> >
PUBLIC	??$_set_noalias@V?$GeneralProduct@V?$Matrix@N$0?0$0?0$0A@$0?0$0?0@Eigen@@V?$MatrixWrapper@$$CBV?$CwiseUnaryOp@U?$scalar_exp_op@N@internal@Eigen@@$$CBV?$ArrayWrapper@$$CBV?$Matrix@N$0?0$00$0A@$0?0$00@Eigen@@@3@@Eigen@@@2@$03@Eigen@@@?$PlainObjectBase@V?$Matrix@N$0?0$00$0A@$0?0$00@Eigen@@@Eigen@@IEAAAEAV?$Matrix@N$0?0$00$0A@$0?0$00@1@AEBV?$DenseBase@V?$GeneralProduct@V?$Matrix@N$0?0$0?0$0A@$0?0$0?0@Eigen@@V?$MatrixWrapper@$$CBV?$CwiseUnaryOp@U?$scalar_exp_op@N@internal@Eigen@@$$CBV?$ArrayWrapper@$$CBV?$Matrix@N$0?0$00$0A@$0?0$00@Eigen@@@3@@Eigen@@@2@$03@Eigen@@@1@@Z ; Eigen::PlainObjectBase<Eigen::Matrix<double,-1,1,0,-1,1> >::_set_noalias<Eigen::GeneralProduct<Eigen::Matrix<double,-1,-1,0,-1,-1>,Eigen::MatrixWrapper<Eigen::CwiseUnaryOp<Eigen::internal::scalar_exp_op<double>,Eigen::ArrayWrapper<Eigen::Matrix<double,-1,1,0,-1,1> const > const > const >,4> >
PUBLIC	??0?$DenseBase@V?$GeneralProduct@V?$Matrix@N$0?0$0?0$0A@$0?0$0?0@Eigen@@V?$MatrixWrapper@$$CBV?$CwiseUnaryOp@U?$scalar_exp_op@N@internal@Eigen@@$$CBV?$ArrayWrapper@V?$Matrix@N$0?0$00$0A@$0?0$00@Eigen@@@3@@Eigen@@@2@$03@Eigen@@@Eigen@@IEAA@XZ ; Eigen::DenseBase<Eigen::GeneralProduct<Eigen::Matrix<double,-1,-1,0,-1,-1>,Eigen::MatrixWrapper<Eigen::CwiseUnaryOp<Eigen::internal::scalar_exp_op<double>,Eigen::ArrayWrapper<Eigen::Matrix<double,-1,1,0,-1,1> > const > const >,4> >::DenseBase<Eigen::GeneralProduct<Eigen::Matrix<double,-1,-1,0,-1,-1>,Eigen::MatrixWrapper<Eigen::CwiseUnaryOp<Eigen::internal::scalar_exp_op<double>,Eigen::ArrayWrapper<Eigen::Matrix<double,-1,1,0,-1,1> > const > const >,4> >
PUBLIC	??0?$DenseBase@V?$SelfCwiseBinaryOp@U?$scalar_sum_op@N@internal@Eigen@@V?$Matrix@N$0?0$00$0A@$0?0$00@3@V?$Block@V?$Matrix@N$0?0$00$0A@$0?0$00@Eigen@@$0?0$0?0$0A@@3@@Eigen@@@Eigen@@IEAA@XZ ; Eigen::DenseBase<Eigen::SelfCwiseBinaryOp<Eigen::internal::scalar_sum_op<double>,Eigen::Matrix<double,-1,1,0,-1,1>,Eigen::Block<Eigen::Matrix<double,-1,1,0,-1,1>,-1,-1,0> > >::DenseBase<Eigen::SelfCwiseBinaryOp<Eigen::internal::scalar_sum_op<double>,Eigen::Matrix<double,-1,1,0,-1,1>,Eigen::Block<Eigen::Matrix<double,-1,1,0,-1,1>,-1,-1,0> > >
PUBLIC	??0?$MatrixBase@V?$GeneralProduct@V?$Matrix@N$0?0$0?0$0A@$0?0$0?0@Eigen@@V?$MatrixWrapper@$$CBV?$CwiseUnaryOp@U?$scalar_exp_op@N@internal@Eigen@@$$CBV?$ArrayWrapper@V?$Matrix@N$0?0$00$0A@$0?0$00@Eigen@@@3@@Eigen@@@2@$03@Eigen@@@Eigen@@IEAA@XZ ; Eigen::MatrixBase<Eigen::GeneralProduct<Eigen::Matrix<double,-1,-1,0,-1,-1>,Eigen::MatrixWrapper<Eigen::CwiseUnaryOp<Eigen::internal::scalar_exp_op<double>,Eigen::ArrayWrapper<Eigen::Matrix<double,-1,1,0,-1,1> > const > const >,4> >::MatrixBase<Eigen::GeneralProduct<Eigen::Matrix<double,-1,-1,0,-1,-1>,Eigen::MatrixWrapper<Eigen::CwiseUnaryOp<Eigen::internal::scalar_exp_op<double>,Eigen::ArrayWrapper<Eigen::Matrix<double,-1,1,0,-1,1> > const > const >,4> >
PUBLIC	??0?$MatrixBase@V?$SelfCwiseBinaryOp@U?$scalar_sum_op@N@internal@Eigen@@V?$Matrix@N$0?0$00$0A@$0?0$00@3@V?$Block@V?$Matrix@N$0?0$00$0A@$0?0$00@Eigen@@$0?0$0?0$0A@@3@@Eigen@@@Eigen@@IEAA@XZ ; Eigen::MatrixBase<Eigen::SelfCwiseBinaryOp<Eigen::internal::scalar_sum_op<double>,Eigen::Matrix<double,-1,1,0,-1,1>,Eigen::Block<Eigen::Matrix<double,-1,1,0,-1,1>,-1,-1,0> > >::MatrixBase<Eigen::SelfCwiseBinaryOp<Eigen::internal::scalar_sum_op<double>,Eigen::Matrix<double,-1,1,0,-1,1>,Eigen::Block<Eigen::Matrix<double,-1,1,0,-1,1>,-1,-1,0> > >
PUBLIC	?derived@?$EigenBase@V?$GeneralProduct@V?$Matrix@N$0?0$0?0$0A@$0?0$0?0@Eigen@@V?$MatrixWrapper@$$CBV?$CwiseUnaryOp@U?$scalar_exp_op@N@internal@Eigen@@$$CBV?$ArrayWrapper@V?$Matrix@N$0?0$00$0A@$0?0$00@Eigen@@@3@@Eigen@@@2@$03@Eigen@@@Eigen@@QEBAAEBV?$GeneralProduct@V?$Matrix@N$0?0$0?0$0A@$0?0$0?0@Eigen@@V?$MatrixWrapper@$$CBV?$CwiseUnaryOp@U?$scalar_exp_op@N@internal@Eigen@@$$CBV?$ArrayWrapper@V?$Matrix@N$0?0$00$0A@$0?0$00@Eigen@@@3@@Eigen@@@2@$03@2@XZ ; Eigen::EigenBase<Eigen::GeneralProduct<Eigen::Matrix<double,-1,-1,0,-1,-1>,Eigen::MatrixWrapper<Eigen::CwiseUnaryOp<Eigen::internal::scalar_exp_op<double>,Eigen::ArrayWrapper<Eigen::Matrix<double,-1,1,0,-1,1> > const > const >,4> >::derived
PUBLIC	?cols@?$ProductBase@V?$GeneralProduct@V?$Matrix@N$0?0$0?0$0A@$0?0$0?0@Eigen@@V?$MatrixWrapper@$$CBV?$CwiseUnaryOp@U?$scalar_exp_op@N@internal@Eigen@@$$CBV?$ArrayWrapper@V?$Matrix@N$0?0$00$0A@$0?0$00@Eigen@@@3@@Eigen@@@2@$03@Eigen@@V?$Matrix@N$0?0$0?0$0A@$0?0$0?0@2@V?$MatrixWrapper@$$CBV?$CwiseUnaryOp@U?$scalar_exp_op@N@internal@Eigen@@$$CBV?$ArrayWrapper@V?$Matrix@N$0?0$00$0A@$0?0$00@Eigen@@@3@@Eigen@@@2@@Eigen@@QEBA_JXZ ; Eigen::ProductBase<Eigen::GeneralProduct<Eigen::Matrix<double,-1,-1,0,-1,-1>,Eigen::MatrixWrapper<Eigen::CwiseUnaryOp<Eigen::internal::scalar_exp_op<double>,Eigen::ArrayWrapper<Eigen::Matrix<double,-1,1,0,-1,1> > const > const >,4>,Eigen::Matrix<double,-1,-1,0,-1,-1>,Eigen::MatrixWrapper<Eigen::CwiseUnaryOp<Eigen::internal::scalar_exp_op<double>,Eigen::ArrayWrapper<Eigen::Matrix<double,-1,1,0,-1,1> > const > const > >::cols
PUBLIC	?rows@?$ProductBase@V?$GeneralProduct@V?$Matrix@N$0?0$0?0$0A@$0?0$0?0@Eigen@@V?$MatrixWrapper@$$CBV?$CwiseUnaryOp@U?$scalar_exp_op@N@internal@Eigen@@$$CBV?$ArrayWrapper@V?$Matrix@N$0?0$00$0A@$0?0$00@Eigen@@@3@@Eigen@@@2@$03@Eigen@@V?$Matrix@N$0?0$0?0$0A@$0?0$0?0@2@V?$MatrixWrapper@$$CBV?$CwiseUnaryOp@U?$scalar_exp_op@N@internal@Eigen@@$$CBV?$ArrayWrapper@V?$Matrix@N$0?0$00$0A@$0?0$00@Eigen@@@3@@Eigen@@@2@@Eigen@@QEBA_JXZ ; Eigen::ProductBase<Eigen::GeneralProduct<Eigen::Matrix<double,-1,-1,0,-1,-1>,Eigen::MatrixWrapper<Eigen::CwiseUnaryOp<Eigen::internal::scalar_exp_op<double>,Eigen::ArrayWrapper<Eigen::Matrix<double,-1,1,0,-1,1> > const > const >,4>,Eigen::Matrix<double,-1,-1,0,-1,-1>,Eigen::MatrixWrapper<Eigen::CwiseUnaryOp<Eigen::internal::scalar_exp_op<double>,Eigen::ArrayWrapper<Eigen::Matrix<double,-1,1,0,-1,1> > const > const > >::rows
PUBLIC	??0?$ProductBase@V?$GeneralProduct@V?$Matrix@N$0?0$0?0$0A@$0?0$0?0@Eigen@@V?$MatrixWrapper@$$CBV?$CwiseUnaryOp@U?$scalar_exp_op@N@internal@Eigen@@$$CBV?$ArrayWrapper@V?$Matrix@N$0?0$00$0A@$0?0$00@Eigen@@@3@@Eigen@@@2@$03@Eigen@@V?$Matrix@N$0?0$0?0$0A@$0?0$0?0@2@V?$MatrixWrapper@$$CBV?$CwiseUnaryOp@U?$scalar_exp_op@N@internal@Eigen@@$$CBV?$ArrayWrapper@V?$Matrix@N$0?0$00$0A@$0?0$00@Eigen@@@3@@Eigen@@@2@@Eigen@@QEAA@AEBV?$Matrix@N$0?0$0?0$0A@$0?0$0?0@1@AEBV?$MatrixWrapper@$$CBV?$CwiseUnaryOp@U?$scalar_exp_op@N@internal@Eigen@@$$CBV?$ArrayWrapper@V?$Matrix@N$0?0$00$0A@$0?0$00@Eigen@@@3@@Eigen@@@1@@Z ; Eigen::ProductBase<Eigen::GeneralProduct<Eigen::Matrix<double,-1,-1,0,-1,-1>,Eigen::MatrixWrapper<Eigen::CwiseUnaryOp<Eigen::internal::scalar_exp_op<double>,Eigen::ArrayWrapper<Eigen::Matrix<double,-1,1,0,-1,1> > const > const >,4>,Eigen::Matrix<double,-1,-1,0,-1,-1>,Eigen::MatrixWrapper<Eigen::CwiseUnaryOp<Eigen::internal::scalar_exp_op<double>,Eigen::ArrayWrapper<Eigen::Matrix<double,-1,1,0,-1,1> > const > const > >::ProductBase<Eigen::GeneralProduct<Eigen::Matrix<double,-1,-1,0,-1,-1>,Eigen::MatrixWrapper<Eigen::CwiseUnaryOp<Eigen::internal::scalar_exp_op<double>,Eigen::ArrayWrapper<Eigen::Matrix<double,-1,1,0,-1,1> > const > const >,4>,Eigen::Matrix<double,-1,-1,0,-1,-1>,Eigen::MatrixWrapper<Eigen::CwiseUnaryOp<Eigen::internal::scalar_exp_op<double>,Eigen::ArrayWrapper<Eigen::Matrix<double,-1,1,0,-1,1> > const > const > >
PUBLIC	?__autoclassinit2@?$Block@V?$Matrix@N$0?0$00$0A@$0?0$00@Eigen@@$0?0$0?0$0A@@Eigen@@QEAAX_K@Z ; Eigen::Block<Eigen::Matrix<double,-1,1,0,-1,1>,-1,-1,0>::__autoclassinit2
PUBLIC	?run@?$assign_selector@V?$Block@V?$Matrix@N$0?0$0?0$0A@$0?0$0?0@Eigen@@$0?0$0?0$0A@@Eigen@@V?$Transpose@V?$Matrix@N$0?0$0?0$0A@$0?0$0?0@Eigen@@@2@$0A@$0A@@internal@Eigen@@SAAEAV?$Block@V?$Matrix@N$0?0$0?0$0A@$0?0$0?0@Eigen@@$0?0$0?0$0A@@3@AEAV43@AEBV?$Transpose@V?$Matrix@N$0?0$0?0$0A@$0?0$0?0@Eigen@@@3@@Z ; Eigen::internal::assign_selector<Eigen::Block<Eigen::Matrix<double,-1,-1,0,-1,-1>,-1,-1,0>,Eigen::Transpose<Eigen::Matrix<double,-1,-1,0,-1,-1> >,0,0>::run
PUBLIC	?run@?$assign_selector@V?$Block@V?$Matrix@N$0?0$0?0$0A@$0?0$0?0@Eigen@@$0?0$0?0$0A@@Eigen@@V?$Matrix@N$0?0$0?0$0A@$0?0$0?0@2@$0A@$0A@@internal@Eigen@@SAAEAV?$Block@V?$Matrix@N$0?0$0?0$0A@$0?0$0?0@Eigen@@$0?0$0?0$0A@@3@AEAV43@AEBV?$Matrix@N$0?0$0?0$0A@$0?0$0?0@3@@Z ; Eigen::internal::assign_selector<Eigen::Block<Eigen::Matrix<double,-1,-1,0,-1,-1>,-1,-1,0>,Eigen::Matrix<double,-1,-1,0,-1,-1>,0,0>::run
PUBLIC	?run@?$assign_selector@V?$Block@V?$Matrix@N$0?0$00$0A@$0?0$00@Eigen@@$0?0$0?0$0A@@Eigen@@V?$Matrix@N$0?0$00$0A@$0?0$00@2@$0A@$0A@@internal@Eigen@@SAAEAV?$Block@V?$Matrix@N$0?0$00$0A@$0?0$00@Eigen@@$0?0$0?0$0A@@3@AEAV43@AEBV?$Matrix@N$0?0$00$0A@$0?0$00@3@@Z ; Eigen::internal::assign_selector<Eigen::Block<Eigen::Matrix<double,-1,1,0,-1,1>,-1,-1,0>,Eigen::Matrix<double,-1,1,0,-1,1>,0,0>::run
PUBLIC	??4?$SelfCwiseBinaryOp@U?$scalar_sum_op@N@internal@Eigen@@V?$Matrix@N$0?0$00$0A@$0?0$00@3@V?$Block@V?$Matrix@N$0?0$00$0A@$0?0$00@Eigen@@$0?0$0?0$0A@@3@@Eigen@@QEAAAEAV01@AEBV?$Block@V?$Matrix@N$0?0$00$0A@$0?0$00@Eigen@@$0?0$0?0$0A@@1@@Z ; Eigen::SelfCwiseBinaryOp<Eigen::internal::scalar_sum_op<double>,Eigen::Matrix<double,-1,1,0,-1,1>,Eigen::Block<Eigen::Matrix<double,-1,1,0,-1,1>,-1,-1,0> >::operator=
PUBLIC	??0?$SelfCwiseBinaryOp@U?$scalar_sum_op@N@internal@Eigen@@V?$Matrix@N$0?0$00$0A@$0?0$00@3@V?$Block@V?$Matrix@N$0?0$00$0A@$0?0$00@Eigen@@$0?0$0?0$0A@@3@@Eigen@@QEAA@AEAV?$Matrix@N$0?0$00$0A@$0?0$00@1@AEBU?$scalar_sum_op@N@internal@1@@Z ; Eigen::SelfCwiseBinaryOp<Eigen::internal::scalar_sum_op<double>,Eigen::Matrix<double,-1,1,0,-1,1>,Eigen::Block<Eigen::Matrix<double,-1,1,0,-1,1>,-1,-1,0> >::SelfCwiseBinaryOp<Eigen::internal::scalar_sum_op<double>,Eigen::Matrix<double,-1,1,0,-1,1>,Eigen::Block<Eigen::Matrix<double,-1,1,0,-1,1>,-1,-1,0> >
PUBLIC	?derived@?$EigenBase@V?$Block@V?$Matrix@N$0?0$0?0$0A@$0?0$0?0@Eigen@@$0?0$0?0$0A@@Eigen@@@Eigen@@QEAAAEAV?$Block@V?$Matrix@N$0?0$0?0$0A@$0?0$0?0@Eigen@@$0?0$0?0$0A@@2@XZ ; Eigen::EigenBase<Eigen::Block<Eigen::Matrix<double,-1,-1,0,-1,-1>,-1,-1,0> >::derived
PUBLIC	?derived@?$EigenBase@V?$Block@V?$Matrix@N$0?0$00$0A@$0?0$00@Eigen@@$0?0$0?0$0A@@Eigen@@@Eigen@@QEBAAEBV?$Block@V?$Matrix@N$0?0$00$0A@$0?0$00@Eigen@@$0?0$0?0$0A@@2@XZ ; Eigen::EigenBase<Eigen::Block<Eigen::Matrix<double,-1,1,0,-1,1>,-1,-1,0> >::derived
PUBLIC	?derived@?$EigenBase@V?$Block@V?$Matrix@N$0?0$00$0A@$0?0$00@Eigen@@$0?0$0?0$0A@@Eigen@@@Eigen@@QEAAAEAV?$Block@V?$Matrix@N$0?0$00$0A@$0?0$00@Eigen@@$0?0$0?0$0A@@2@XZ ; Eigen::EigenBase<Eigen::Block<Eigen::Matrix<double,-1,1,0,-1,1>,-1,-1,0> >::derived
PUBLIC	?cols@?$EigenBase@V?$GeneralProduct@V?$Matrix@N$0?0$0?0$0A@$0?0$0?0@Eigen@@V?$MatrixWrapper@$$CBV?$CwiseUnaryOp@U?$scalar_exp_op@N@internal@Eigen@@$$CBV?$ArrayWrapper@V?$Matrix@N$0?0$00$0A@$0?0$00@Eigen@@@3@@Eigen@@@2@$03@Eigen@@@Eigen@@QEBA_JXZ ; Eigen::EigenBase<Eigen::GeneralProduct<Eigen::Matrix<double,-1,-1,0,-1,-1>,Eigen::MatrixWrapper<Eigen::CwiseUnaryOp<Eigen::internal::scalar_exp_op<double>,Eigen::ArrayWrapper<Eigen::Matrix<double,-1,1,0,-1,1> > const > const >,4> >::cols
PUBLIC	?rows@?$EigenBase@V?$GeneralProduct@V?$Matrix@N$0?0$0?0$0A@$0?0$0?0@Eigen@@V?$MatrixWrapper@$$CBV?$CwiseUnaryOp@U?$scalar_exp_op@N@internal@Eigen@@$$CBV?$ArrayWrapper@V?$Matrix@N$0?0$00$0A@$0?0$00@Eigen@@@3@@Eigen@@@2@$03@Eigen@@@Eigen@@QEBA_JXZ ; Eigen::EigenBase<Eigen::GeneralProduct<Eigen::Matrix<double,-1,-1,0,-1,-1>,Eigen::MatrixWrapper<Eigen::CwiseUnaryOp<Eigen::internal::scalar_exp_op<double>,Eigen::ArrayWrapper<Eigen::Matrix<double,-1,1,0,-1,1> > const > const >,4> >::rows
PUBLIC	??0?$GeneralProduct@V?$Matrix@N$0?0$0?0$0A@$0?0$0?0@Eigen@@V?$MatrixWrapper@$$CBV?$CwiseUnaryOp@U?$scalar_exp_op@N@internal@Eigen@@$$CBV?$ArrayWrapper@V?$Matrix@N$0?0$00$0A@$0?0$00@Eigen@@@3@@Eigen@@@2@$03@Eigen@@QEAA@AEBV?$Matrix@N$0?0$0?0$0A@$0?0$0?0@1@AEBV?$MatrixWrapper@$$CBV?$CwiseUnaryOp@U?$scalar_exp_op@N@internal@Eigen@@$$CBV?$ArrayWrapper@V?$Matrix@N$0?0$00$0A@$0?0$00@Eigen@@@3@@Eigen@@@1@@Z ; Eigen::GeneralProduct<Eigen::Matrix<double,-1,-1,0,-1,-1>,Eigen::MatrixWrapper<Eigen::CwiseUnaryOp<Eigen::internal::scalar_exp_op<double>,Eigen::ArrayWrapper<Eigen::Matrix<double,-1,1,0,-1,1> > const > const >,4>::GeneralProduct<Eigen::Matrix<double,-1,-1,0,-1,-1>,Eigen::MatrixWrapper<Eigen::CwiseUnaryOp<Eigen::internal::scalar_exp_op<double>,Eigen::ArrayWrapper<Eigen::Matrix<double,-1,1,0,-1,1> > const > const >,4>
PUBLIC	?cols@?$EigenBase@V?$GeneralProduct@V?$Matrix@N$0?0$0?0$0A@$0?0$0?0@Eigen@@V?$MatrixWrapper@$$CBV?$CwiseUnaryOp@U?$scalar_exp_op@N@internal@Eigen@@$$CBV?$ArrayWrapper@$$CBV?$Matrix@N$0?0$00$0A@$0?0$00@Eigen@@@3@@Eigen@@@2@$03@Eigen@@@Eigen@@QEBA_JXZ ; Eigen::EigenBase<Eigen::GeneralProduct<Eigen::Matrix<double,-1,-1,0,-1,-1>,Eigen::MatrixWrapper<Eigen::CwiseUnaryOp<Eigen::internal::scalar_exp_op<double>,Eigen::ArrayWrapper<Eigen::Matrix<double,-1,1,0,-1,1> const > const > const >,4> >::cols
PUBLIC	?rows@?$EigenBase@V?$GeneralProduct@V?$Matrix@N$0?0$0?0$0A@$0?0$0?0@Eigen@@V?$MatrixWrapper@$$CBV?$CwiseUnaryOp@U?$scalar_exp_op@N@internal@Eigen@@$$CBV?$ArrayWrapper@$$CBV?$Matrix@N$0?0$00$0A@$0?0$00@Eigen@@@3@@Eigen@@@2@$03@Eigen@@@Eigen@@QEBA_JXZ ; Eigen::EigenBase<Eigen::GeneralProduct<Eigen::Matrix<double,-1,-1,0,-1,-1>,Eigen::MatrixWrapper<Eigen::CwiseUnaryOp<Eigen::internal::scalar_exp_op<double>,Eigen::ArrayWrapper<Eigen::Matrix<double,-1,1,0,-1,1> const > const > const >,4> >::rows
PUBLIC	??$?0V?$Matrix@N$0?0$00$0A@$0?0$00@Eigen@@@?$Matrix@N$0?0$0?0$0A@$0?0$0?0@Eigen@@QEAA@AEBV?$MatrixBase@V?$Matrix@N$0?0$00$0A@$0?0$00@Eigen@@@1@@Z ; Eigen::Matrix<double,-1,-1,0,-1,-1>::Matrix<double,-1,-1,0,-1,-1><Eigen::Matrix<double,-1,1,0,-1,1> >
PUBLIC	??$?4V?$Transpose@V?$Matrix@N$0?0$0?0$0A@$0?0$0?0@Eigen@@@Eigen@@@?$MatrixBase@V?$Block@V?$Matrix@N$0?0$0?0$0A@$0?0$0?0@Eigen@@$0?0$0?0$0A@@Eigen@@@Eigen@@QEAAAEAV?$Block@V?$Matrix@N$0?0$0?0$0A@$0?0$0?0@Eigen@@$0?0$0?0$0A@@1@AEBV?$DenseBase@V?$Transpose@V?$Matrix@N$0?0$0?0$0A@$0?0$0?0@Eigen@@@Eigen@@@1@@Z ; Eigen::MatrixBase<Eigen::Block<Eigen::Matrix<double,-1,-1,0,-1,-1>,-1,-1,0> >::operator=<Eigen::Transpose<Eigen::Matrix<double,-1,-1,0,-1,-1> > >
PUBLIC	??$?4V?$Matrix@N$0?0$0?0$0A@$0?0$0?0@Eigen@@@?$MatrixBase@V?$Block@V?$Matrix@N$0?0$0?0$0A@$0?0$0?0@Eigen@@$0?0$0?0$0A@@Eigen@@@Eigen@@QEAAAEAV?$Block@V?$Matrix@N$0?0$0?0$0A@$0?0$0?0@Eigen@@$0?0$0?0$0A@@1@AEBV?$DenseBase@V?$Matrix@N$0?0$0?0$0A@$0?0$0?0@Eigen@@@1@@Z ; Eigen::MatrixBase<Eigen::Block<Eigen::Matrix<double,-1,-1,0,-1,-1>,-1,-1,0> >::operator=<Eigen::Matrix<double,-1,-1,0,-1,-1> >
PUBLIC	??$?4V?$Matrix@N$0?0$00$0A@$0?0$00@Eigen@@@?$MatrixBase@V?$Block@V?$Matrix@N$0?0$00$0A@$0?0$00@Eigen@@$0?0$0?0$0A@@Eigen@@@Eigen@@QEAAAEAV?$Block@V?$Matrix@N$0?0$00$0A@$0?0$00@Eigen@@$0?0$0?0$0A@@1@AEBV?$DenseBase@V?$Matrix@N$0?0$00$0A@$0?0$00@Eigen@@@1@@Z ; Eigen::MatrixBase<Eigen::Block<Eigen::Matrix<double,-1,1,0,-1,1>,-1,-1,0> >::operator=<Eigen::Matrix<double,-1,1,0,-1,1> >
PUBLIC	??$?YV?$Block@V?$Matrix@N$0?0$00$0A@$0?0$00@Eigen@@$0?0$0?0$0A@@Eigen@@@?$MatrixBase@V?$Matrix@N$0?0$00$0A@$0?0$00@Eigen@@@Eigen@@QEAAAEAV?$Matrix@N$0?0$00$0A@$0?0$00@1@AEBV?$MatrixBase@V?$Block@V?$Matrix@N$0?0$00$0A@$0?0$00@Eigen@@$0?0$0?0$0A@@Eigen@@@1@@Z ; Eigen::MatrixBase<Eigen::Matrix<double,-1,1,0,-1,1> >::operator+=<Eigen::Block<Eigen::Matrix<double,-1,1,0,-1,1>,-1,-1,0> >
PUBLIC	??$?4V?$CwiseUnaryOp@U?$scalar_opposite_op@N@internal@Eigen@@$$CBV?$ReturnByValue@U?$solve_retval_base@V?$PartialPivLU@V?$Matrix@N$0?0$0?0$0A@$0?0$0?0@Eigen@@@Eigen@@V?$Matrix@N$0?0$00$0A@$0?0$00@2@@internal@Eigen@@@3@@Eigen@@@?$Matrix@N$0?0$00$0A@$0?0$00@Eigen@@QEAAAEAV01@AEBV?$MatrixBase@V?$CwiseUnaryOp@U?$scalar_opposite_op@N@internal@Eigen@@$$CBV?$ReturnByValue@U?$solve_retval_base@V?$PartialPivLU@V?$Matrix@N$0?0$0?0$0A@$0?0$0?0@Eigen@@@Eigen@@V?$Matrix@N$0?0$00$0A@$0?0$00@2@@internal@Eigen@@@3@@Eigen@@@1@@Z ; Eigen::Matrix<double,-1,1,0,-1,1>::operator=<Eigen::CwiseUnaryOp<Eigen::internal::scalar_opposite_op<double>,Eigen::ReturnByValue<Eigen::internal::solve_retval_base<Eigen::PartialPivLU<Eigen::Matrix<double,-1,-1,0,-1,-1> >,Eigen::Matrix<double,-1,1,0,-1,1> > > const > >
PUBLIC	??$?0V?$GeneralProduct@V?$Matrix@N$0?0$0?0$0A@$0?0$0?0@Eigen@@V?$MatrixWrapper@$$CBV?$CwiseUnaryOp@U?$scalar_exp_op@N@internal@Eigen@@$$CBV?$ArrayWrapper@V?$Matrix@N$0?0$00$0A@$0?0$00@Eigen@@@3@@Eigen@@@2@$03@Eigen@@@?$Matrix@N$0?0$00$0A@$0?0$00@Eigen@@QEAA@AEBV?$MatrixBase@V?$GeneralProduct@V?$Matrix@N$0?0$0?0$0A@$0?0$0?0@Eigen@@V?$MatrixWrapper@$$CBV?$CwiseUnaryOp@U?$scalar_exp_op@N@internal@Eigen@@$$CBV?$ArrayWrapper@V?$Matrix@N$0?0$00$0A@$0?0$00@Eigen@@@3@@Eigen@@@2@$03@Eigen@@@1@@Z ; Eigen::Matrix<double,-1,1,0,-1,1>::Matrix<double,-1,1,0,-1,1><Eigen::GeneralProduct<Eigen::Matrix<double,-1,-1,0,-1,-1>,Eigen::MatrixWrapper<Eigen::CwiseUnaryOp<Eigen::internal::scalar_exp_op<double>,Eigen::ArrayWrapper<Eigen::Matrix<double,-1,1,0,-1,1> > const > const >,4> >
PUBLIC	??$?DV?$MatrixWrapper@$$CBV?$CwiseUnaryOp@U?$scalar_exp_op@N@internal@Eigen@@$$CBV?$ArrayWrapper@V?$Matrix@N$0?0$00$0A@$0?0$00@Eigen@@@3@@Eigen@@@Eigen@@@?$MatrixBase@V?$Matrix@N$0?0$0?0$0A@$0?0$0?0@Eigen@@@Eigen@@QEBA?BV?$GeneralProduct@V?$Matrix@N$0?0$0?0$0A@$0?0$0?0@Eigen@@V?$MatrixWrapper@$$CBV?$CwiseUnaryOp@U?$scalar_exp_op@N@internal@Eigen@@$$CBV?$ArrayWrapper@V?$Matrix@N$0?0$00$0A@$0?0$00@Eigen@@@3@@Eigen@@@2@$03@1@AEBV?$MatrixBase@V?$MatrixWrapper@$$CBV?$CwiseUnaryOp@U?$scalar_exp_op@N@internal@Eigen@@$$CBV?$ArrayWrapper@V?$Matrix@N$0?0$00$0A@$0?0$00@Eigen@@@3@@Eigen@@@Eigen@@@1@@Z ; Eigen::MatrixBase<Eigen::Matrix<double,-1,-1,0,-1,-1> >::operator*<Eigen::MatrixWrapper<Eigen::CwiseUnaryOp<Eigen::internal::scalar_exp_op<double>,Eigen::ArrayWrapper<Eigen::Matrix<double,-1,1,0,-1,1> > const > const > >
PUBLIC	??$?0V?$GeneralProduct@V?$Matrix@N$0?0$0?0$0A@$0?0$0?0@Eigen@@V?$MatrixWrapper@$$CBV?$CwiseUnaryOp@U?$scalar_exp_op@N@internal@Eigen@@$$CBV?$ArrayWrapper@$$CBV?$Matrix@N$0?0$00$0A@$0?0$00@Eigen@@@3@@Eigen@@@2@$03@Eigen@@@?$Matrix@N$0?0$00$0A@$0?0$00@Eigen@@QEAA@AEBV?$MatrixBase@V?$GeneralProduct@V?$Matrix@N$0?0$0?0$0A@$0?0$0?0@Eigen@@V?$MatrixWrapper@$$CBV?$CwiseUnaryOp@U?$scalar_exp_op@N@internal@Eigen@@$$CBV?$ArrayWrapper@$$CBV?$Matrix@N$0?0$00$0A@$0?0$00@Eigen@@@3@@Eigen@@@2@$03@Eigen@@@1@@Z ; Eigen::Matrix<double,-1,1,0,-1,1>::Matrix<double,-1,1,0,-1,1><Eigen::GeneralProduct<Eigen::Matrix<double,-1,-1,0,-1,-1>,Eigen::MatrixWrapper<Eigen::CwiseUnaryOp<Eigen::internal::scalar_exp_op<double>,Eigen::ArrayWrapper<Eigen::Matrix<double,-1,1,0,-1,1> const > const > const >,4> >
PUBLIC	??0?$DenseBase@V?$Block@V?$Matrix@N$0?0$0?0$0A@$0?0$0?0@Eigen@@$0?0$0?0$0A@@Eigen@@@Eigen@@IEAA@XZ ; Eigen::DenseBase<Eigen::Block<Eigen::Matrix<double,-1,-1,0,-1,-1>,-1,-1,0> >::DenseBase<Eigen::Block<Eigen::Matrix<double,-1,-1,0,-1,-1>,-1,-1,0> >
PUBLIC	??0?$DenseBase@V?$Block@V?$Matrix@N$0?0$00$0A@$0?0$00@Eigen@@$0?0$0?0$0A@@Eigen@@@Eigen@@IEAA@XZ ; Eigen::DenseBase<Eigen::Block<Eigen::Matrix<double,-1,1,0,-1,1>,-1,-1,0> >::DenseBase<Eigen::Block<Eigen::Matrix<double,-1,1,0,-1,1>,-1,-1,0> >
PUBLIC	??0?$MatrixBase@V?$Block@V?$Matrix@N$0?0$0?0$0A@$0?0$0?0@Eigen@@$0?0$0?0$0A@@Eigen@@@Eigen@@IEAA@XZ ; Eigen::MatrixBase<Eigen::Block<Eigen::Matrix<double,-1,-1,0,-1,-1>,-1,-1,0> >::MatrixBase<Eigen::Block<Eigen::Matrix<double,-1,-1,0,-1,-1>,-1,-1,0> >
PUBLIC	?checkSanity@?$MapBase@V?$Block@V?$Matrix@N$0?0$0?0$0A@$0?0$0?0@Eigen@@$0?0$0?0$0A@@Eigen@@$0A@@Eigen@@IEBAXXZ ; Eigen::MapBase<Eigen::Block<Eigen::Matrix<double,-1,-1,0,-1,-1>,-1,-1,0>,0>::checkSanity
PUBLIC	??0?$MatrixBase@V?$Block@V?$Matrix@N$0?0$00$0A@$0?0$00@Eigen@@$0?0$0?0$0A@@Eigen@@@Eigen@@IEAA@XZ ; Eigen::MatrixBase<Eigen::Block<Eigen::Matrix<double,-1,1,0,-1,1>,-1,-1,0> >::MatrixBase<Eigen::Block<Eigen::Matrix<double,-1,1,0,-1,1>,-1,-1,0> >
PUBLIC	?checkSanity@?$MapBase@V?$Block@V?$Matrix@N$0?0$00$0A@$0?0$00@Eigen@@$0?0$0?0$0A@@Eigen@@$0A@@Eigen@@IEBAXXZ ; Eigen::MapBase<Eigen::Block<Eigen::Matrix<double,-1,1,0,-1,1>,-1,-1,0>,0>::checkSanity
PUBLIC	??0?$MapBase@V?$Block@V?$Matrix@N$0?0$0?0$0A@$0?0$0?0@Eigen@@$0?0$0?0$0A@@Eigen@@$0A@@Eigen@@QEAA@PEAN_J1@Z ; Eigen::MapBase<Eigen::Block<Eigen::Matrix<double,-1,-1,0,-1,-1>,-1,-1,0>,0>::MapBase<Eigen::Block<Eigen::Matrix<double,-1,-1,0,-1,-1>,-1,-1,0>,0>
PUBLIC	??0?$MapBase@V?$Block@V?$Matrix@N$0?0$00$0A@$0?0$00@Eigen@@$0?0$0?0$0A@@Eigen@@$0A@@Eigen@@QEAA@PEAN_J1@Z ; Eigen::MapBase<Eigen::Block<Eigen::Matrix<double,-1,1,0,-1,1>,-1,-1,0>,0>::MapBase<Eigen::Block<Eigen::Matrix<double,-1,1,0,-1,1>,-1,-1,0>,0>
PUBLIC	?innerStride@?$Matrix@N$0?0$0?0$0A@$0?0$0?0@Eigen@@QEBA_JXZ ; Eigen::Matrix<double,-1,-1,0,-1,-1>::innerStride
PUBLIC	??0?$MapBase@V?$Block@V?$Matrix@N$0?0$0?0$0A@$0?0$0?0@Eigen@@$0?0$0?0$0A@@Eigen@@$00@Eigen@@QEAA@PEAN_J1@Z ; Eigen::MapBase<Eigen::Block<Eigen::Matrix<double,-1,-1,0,-1,-1>,-1,-1,0>,1>::MapBase<Eigen::Block<Eigen::Matrix<double,-1,-1,0,-1,-1>,-1,-1,0>,1>
PUBLIC	?init@?$BlockImpl_dense@V?$Matrix@N$0?0$0?0$0A@$0?0$0?0@Eigen@@$0?0$0?0$0A@$00@internal@Eigen@@IEAAXXZ ; Eigen::internal::BlockImpl_dense<Eigen::Matrix<double,-1,-1,0,-1,-1>,-1,-1,0,1>::init
PUBLIC	??0?$MapBase@V?$Block@V?$Matrix@N$0?0$00$0A@$0?0$00@Eigen@@$0?0$0?0$0A@@Eigen@@$00@Eigen@@QEAA@PEAN_J1@Z ; Eigen::MapBase<Eigen::Block<Eigen::Matrix<double,-1,1,0,-1,1>,-1,-1,0>,1>::MapBase<Eigen::Block<Eigen::Matrix<double,-1,1,0,-1,1>,-1,-1,0>,1>
PUBLIC	?init@?$BlockImpl_dense@V?$Matrix@N$0?0$00$0A@$0?0$00@Eigen@@$0?0$0?0$0A@$00@internal@Eigen@@IEAAXXZ ; Eigen::internal::BlockImpl_dense<Eigen::Matrix<double,-1,1,0,-1,1>,-1,-1,0,1>::init
PUBLIC	??0?$BlockImpl_dense@V?$Matrix@N$0?0$0?0$0A@$0?0$0?0@Eigen@@$0?0$0?0$0A@$00@internal@Eigen@@QEAA@AEAV?$Matrix@N$0?0$0?0$0A@$0?0$0?0@2@_J111@Z ; Eigen::internal::BlockImpl_dense<Eigen::Matrix<double,-1,-1,0,-1,-1>,-1,-1,0,1>::BlockImpl_dense<Eigen::Matrix<double,-1,-1,0,-1,-1>,-1,-1,0,1>
PUBLIC	??0?$BlockImpl_dense@V?$Matrix@N$0?0$00$0A@$0?0$00@Eigen@@$0?0$0?0$0A@$00@internal@Eigen@@QEAA@AEAV?$Matrix@N$0?0$00$0A@$0?0$00@2@_J111@Z ; Eigen::internal::BlockImpl_dense<Eigen::Matrix<double,-1,1,0,-1,1>,-1,-1,0,1>::BlockImpl_dense<Eigen::Matrix<double,-1,1,0,-1,1>,-1,-1,0,1>
PUBLIC	??0?$BlockImpl@V?$Matrix@N$0?0$0?0$0A@$0?0$0?0@Eigen@@$0?0$0?0$0A@UDense@2@@Eigen@@QEAA@AEAV?$Matrix@N$0?0$0?0$0A@$0?0$0?0@1@_J111@Z ; Eigen::BlockImpl<Eigen::Matrix<double,-1,-1,0,-1,-1>,-1,-1,0,Eigen::Dense>::BlockImpl<Eigen::Matrix<double,-1,-1,0,-1,-1>,-1,-1,0,Eigen::Dense>
PUBLIC	??0?$BlockImpl@V?$Matrix@N$0?0$00$0A@$0?0$00@Eigen@@$0?0$0?0$0A@UDense@2@@Eigen@@QEAA@AEAV?$Matrix@N$0?0$00$0A@$0?0$00@1@_J111@Z ; Eigen::BlockImpl<Eigen::Matrix<double,-1,1,0,-1,1>,-1,-1,0,Eigen::Dense>::BlockImpl<Eigen::Matrix<double,-1,1,0,-1,1>,-1,-1,0,Eigen::Dense>
PUBLIC	??0?$Block@V?$Matrix@N$0?0$0?0$0A@$0?0$0?0@Eigen@@$0?0$0?0$0A@@Eigen@@QEAA@AEAV?$Matrix@N$0?0$0?0$0A@$0?0$0?0@1@_J111@Z ; Eigen::Block<Eigen::Matrix<double,-1,-1,0,-1,-1>,-1,-1,0>::Block<Eigen::Matrix<double,-1,-1,0,-1,-1>,-1,-1,0>
PUBLIC	??0?$Block@V?$Matrix@N$0?0$00$0A@$0?0$00@Eigen@@$0?0$0?0$0A@@Eigen@@QEAA@AEAV?$Matrix@N$0?0$00$0A@$0?0$00@1@_J111@Z ; Eigen::Block<Eigen::Matrix<double,-1,1,0,-1,1>,-1,-1,0>::Block<Eigen::Matrix<double,-1,1,0,-1,1>,-1,-1,0>
PUBLIC	??R?$DenseCoeffsBase@V?$Matrix@N$0?0$0?0$0A@$0?0$0?0@Eigen@@$00@Eigen@@QEAAAEAN_J@Z ; Eigen::DenseCoeffsBase<Eigen::Matrix<double,-1,-1,0,-1,-1>,1>::operator()
PUBLIC	?block@?$DenseBase@V?$Matrix@N$0?0$0?0$0A@$0?0$0?0@Eigen@@@Eigen@@QEAA?AV?$Block@V?$Matrix@N$0?0$0?0$0A@$0?0$0?0@Eigen@@$0?0$0?0$0A@@2@_J000@Z ; Eigen::DenseBase<Eigen::Matrix<double,-1,-1,0,-1,-1> >::block
PUBLIC	??R?$DenseCoeffsBase@V?$Matrix@N$0?0$00$0A@$0?0$00@Eigen@@$0A@@Eigen@@QEBAAEBN_J@Z ; Eigen::DenseCoeffsBase<Eigen::Matrix<double,-1,1,0,-1,1>,0>::operator()
PUBLIC	??A?$DenseCoeffsBase@V?$Matrix@N$0?0$00$0A@$0?0$00@Eigen@@$0A@@Eigen@@QEBAAEBN_J@Z ; Eigen::DenseCoeffsBase<Eigen::Matrix<double,-1,1,0,-1,1>,0>::operator[]
PUBLIC	?block@?$DenseBase@V?$Matrix@N$0?0$00$0A@$0?0$00@Eigen@@@Eigen@@QEAA?AV?$Block@V?$Matrix@N$0?0$00$0A@$0?0$00@Eigen@@$0?0$0?0$0A@@2@_J000@Z ; Eigen::DenseBase<Eigen::Matrix<double,-1,1,0,-1,1> >::block
PUBLIC	?getAdv_ij@Tikhonov2D@@AEBAN_K0@Z		; Tikhonov2D::getAdv_ij
PUBLIC	?getA_ij@Tikhonov2D@@AEBAN_K0@Z			; Tikhonov2D::getA_ij
PUBLIC	?setJandH@Tikhonov2D@@AEAA_NNN@Z		; Tikhonov2D::setJandH
PUBLIC	?updateFandV@Tikhonov2D@@AEAA_NNNNN@Z		; Tikhonov2D::updateFandV
PUBLIC	?updateV@Tikhonov2D@@AEAA_NNN@Z			; Tikhonov2D::updateV
PUBLIC	??1?$ProductBase@V?$GeneralProduct@V?$Matrix@N$0?0$0?0$0A@$0?0$0?0@Eigen@@V?$MatrixWrapper@$$CBV?$CwiseUnaryOp@U?$scalar_exp_op@N@internal@Eigen@@$$CBV?$ArrayWrapper@V?$Matrix@N$0?0$00$0A@$0?0$00@Eigen@@@3@@Eigen@@@2@$03@Eigen@@V?$Matrix@N$0?0$0?0$0A@$0?0$0?0@2@V?$MatrixWrapper@$$CBV?$CwiseUnaryOp@U?$scalar_exp_op@N@internal@Eigen@@$$CBV?$ArrayWrapper@V?$Matrix@N$0?0$00$0A@$0?0$00@Eigen@@@3@@Eigen@@@2@@Eigen@@QEAA@XZ ; Eigen::ProductBase<Eigen::GeneralProduct<Eigen::Matrix<double,-1,-1,0,-1,-1>,Eigen::MatrixWrapper<Eigen::CwiseUnaryOp<Eigen::internal::scalar_exp_op<double>,Eigen::ArrayWrapper<Eigen::Matrix<double,-1,1,0,-1,1> > const > const >,4>,Eigen::Matrix<double,-1,-1,0,-1,-1>,Eigen::MatrixWrapper<Eigen::CwiseUnaryOp<Eigen::internal::scalar_exp_op<double>,Eigen::ArrayWrapper<Eigen::Matrix<double,-1,1,0,-1,1> > const > const > >::~ProductBase<Eigen::GeneralProduct<Eigen::Matrix<double,-1,-1,0,-1,-1>,Eigen::MatrixWrapper<Eigen::CwiseUnaryOp<Eigen::internal::scalar_exp_op<double>,Eigen::ArrayWrapper<Eigen::Matrix<double,-1,1,0,-1,1> > const > const >,4>,Eigen::Matrix<double,-1,-1,0,-1,-1>,Eigen::MatrixWrapper<Eigen::CwiseUnaryOp<Eigen::internal::scalar_exp_op<double>,Eigen::ArrayWrapper<Eigen::Matrix<double,-1,1,0,-1,1> > const > const > >
PUBLIC	??1?$GeneralProduct@V?$Matrix@N$0?0$0?0$0A@$0?0$0?0@Eigen@@V?$MatrixWrapper@$$CBV?$CwiseUnaryOp@U?$scalar_exp_op@N@internal@Eigen@@$$CBV?$ArrayWrapper@V?$Matrix@N$0?0$00$0A@$0?0$00@Eigen@@@3@@Eigen@@@2@$03@Eigen@@QEAA@XZ ; Eigen::GeneralProduct<Eigen::Matrix<double,-1,-1,0,-1,-1>,Eigen::MatrixWrapper<Eigen::CwiseUnaryOp<Eigen::internal::scalar_exp_op<double>,Eigen::ArrayWrapper<Eigen::Matrix<double,-1,1,0,-1,1> > const > const >,4>::~GeneralProduct<Eigen::Matrix<double,-1,-1,0,-1,-1>,Eigen::MatrixWrapper<Eigen::CwiseUnaryOp<Eigen::internal::scalar_exp_op<double>,Eigen::ArrayWrapper<Eigen::Matrix<double,-1,1,0,-1,1> > const > const >,4>
PUBLIC	?updateF@Tikhonov2D@@AEAA_NNN@Z			; Tikhonov2D::updateF
PUBLIC	?getAf@Tikhonov2D@@QEBA?AV?$Matrix@N$0?0$0?0$0A@$0?0$0?0@Eigen@@XZ ; Tikhonov2D::getAf
PUBLIC	?solve@Tikhonov2D@@QEAA_NNNNN@Z			; Tikhonov2D::solve
PUBLIC	?set_Lv_2ndDeriv@Tikhonov2D@@QEAAXXZ		; Tikhonov2D::set_Lv_2ndDeriv
PUBLIC	?set_Lf_2ndDeriv@Tikhonov2D@@QEAAXXZ		; Tikhonov2D::set_Lf_2ndDeriv
PUBLIC	??1Tikhonov2D@@QEAA@XZ				; Tikhonov2D::~Tikhonov2D
PUBLIC	??0Tikhonov2D@@QEAA@_K0NNV?$Matrix@N$0?0$00$0A@$0?0$00@Eigen@@1@Z ; Tikhonov2D::Tikhonov2D
_Tuple_alloc DB	01H DUP (?)
ignore	DB	01H DUP (?)
allocator_arg DB 01H DUP (?)
piecewise_construct DB 01H DUP (?)
_BSS	ENDS
;	COMDAT pdata
pdata	SEGMENT
$pdata$??$run@V?$GeneralProduct@V?$Matrix@N$0?0$0?0$0A@$0?0$0?0@Eigen@@V?$MatrixWrapper@$$CBV?$CwiseUnaryOp@U?$scalar_exp_op@N@internal@Eigen@@$$CBV?$ArrayWrapper@V?$Matrix@N$0?0$00$0A@$0?0$00@Eigen@@@3@@Eigen@@@2@$03@Eigen@@V?$Matrix@N$0?0$00$0A@$0?0$00@2@@?$gemv_selector@$01$0A@$00@internal@Eigen@@SAXAEBV?$GeneralProduct@V?$Matrix@N$0?0$0?0$0A@$0?0$0?0@Eigen@@V?$MatrixWrapper@$$CBV?$CwiseUnaryOp@U?$scalar_exp_op@N@internal@Eigen@@$$CBV?$ArrayWrapper@V?$Matrix@N$0?0$00$0A@$0?0$00@Eigen@@@3@@Eigen@@@2@$03@2@AEAV?$Matrix@N$0?0$00$0A@$0?0$00@2@AEBN@Z DD imagerel $LN1729
	DD	imagerel $LN1729+732
	DD	imagerel $unwind$??$run@V?$GeneralProduct@V?$Matrix@N$0?0$0?0$0A@$0?0$0?0@Eigen@@V?$MatrixWrapper@$$CBV?$CwiseUnaryOp@U?$scalar_exp_op@N@internal@Eigen@@$$CBV?$ArrayWrapper@V?$Matrix@N$0?0$00$0A@$0?0$00@Eigen@@@3@@Eigen@@@2@$03@Eigen@@V?$Matrix@N$0?0$00$0A@$0?0$00@2@@?$gemv_selector@$01$0A@$00@internal@Eigen@@SAXAEBV?$GeneralProduct@V?$Matrix@N$0?0$0?0$0A@$0?0$0?0@Eigen@@V?$MatrixWrapper@$$CBV?$CwiseUnaryOp@U?$scalar_exp_op@N@internal@Eigen@@$$CBV?$ArrayWrapper@V?$Matrix@N$0?0$00$0A@$0?0$00@Eigen@@@3@@Eigen@@@2@$03@2@AEAV?$Matrix@N$0?0$00$0A@$0?0$00@2@AEBN@Z
pdata	ENDS
;	COMDAT pdata
pdata	SEGMENT
$pdata$??$scaleAndAddTo@V?$Matrix@N$0?0$00$0A@$0?0$00@Eigen@@@?$GeneralProduct@V?$Matrix@N$0?0$0?0$0A@$0?0$0?0@Eigen@@V?$MatrixWrapper@$$CBV?$CwiseUnaryOp@U?$scalar_exp_op@N@internal@Eigen@@$$CBV?$ArrayWrapper@V?$Matrix@N$0?0$00$0A@$0?0$00@Eigen@@@3@@Eigen@@@2@$03@Eigen@@QEBAXAEAV?$Matrix@N$0?0$00$0A@$0?0$00@1@AEBN@Z DD imagerel $LN28
	DD	imagerel $LN28+92
	DD	imagerel $unwind$??$scaleAndAddTo@V?$Matrix@N$0?0$00$0A@$0?0$00@Eigen@@@?$GeneralProduct@V?$Matrix@N$0?0$0?0$0A@$0?0$0?0@Eigen@@V?$MatrixWrapper@$$CBV?$CwiseUnaryOp@U?$scalar_exp_op@N@internal@Eigen@@$$CBV?$ArrayWrapper@V?$Matrix@N$0?0$00$0A@$0?0$00@Eigen@@@3@@Eigen@@@2@$03@Eigen@@QEBAXAEAV?$Matrix@N$0?0$00$0A@$0?0$00@1@AEBN@Z
pdata	ENDS
;	COMDAT pdata
pdata	SEGMENT
$pdata$??$scaleAndAddTo@V?$Matrix@N$0?0$00$0A@$0?0$00@Eigen@@@?$ProductBase@V?$GeneralProduct@V?$Matrix@N$0?0$0?0$0A@$0?0$0?0@Eigen@@V?$MatrixWrapper@$$CBV?$CwiseUnaryOp@U?$scalar_exp_op@N@internal@Eigen@@$$CBV?$ArrayWrapper@V?$Matrix@N$0?0$00$0A@$0?0$00@Eigen@@@3@@Eigen@@@2@$03@Eigen@@V?$Matrix@N$0?0$0?0$0A@$0?0$0?0@2@V?$MatrixWrapper@$$CBV?$CwiseUnaryOp@U?$scalar_exp_op@N@internal@Eigen@@$$CBV?$ArrayWrapper@V?$Matrix@N$0?0$00$0A@$0?0$00@Eigen@@@3@@Eigen@@@2@@Eigen@@QEBAXAEAV?$Matrix@N$0?0$00$0A@$0?0$00@1@AEBN@Z DD imagerel $LN32
	DD	imagerel $LN32+92
	DD	imagerel $unwind$??$scaleAndAddTo@V?$Matrix@N$0?0$00$0A@$0?0$00@Eigen@@@?$ProductBase@V?$GeneralProduct@V?$Matrix@N$0?0$0?0$0A@$0?0$0?0@Eigen@@V?$MatrixWrapper@$$CBV?$CwiseUnaryOp@U?$scalar_exp_op@N@internal@Eigen@@$$CBV?$ArrayWrapper@V?$Matrix@N$0?0$00$0A@$0?0$00@Eigen@@@3@@Eigen@@@2@$03@Eigen@@V?$Matrix@N$0?0$0?0$0A@$0?0$0?0@2@V?$MatrixWrapper@$$CBV?$CwiseUnaryOp@U?$scalar_exp_op@N@internal@Eigen@@$$CBV?$ArrayWrapper@V?$Matrix@N$0?0$00$0A@$0?0$00@Eigen@@@3@@Eigen@@@2@@Eigen@@QEBAXAEAV?$Matrix@N$0?0$00$0A@$0?0$00@1@AEBN@Z
pdata	ENDS
;	COMDAT pdata
pdata	SEGMENT
$pdata$??$run@V?$Matrix@N$0?0$00$0A@$0?0$00@Eigen@@V?$Matrix@N$0?0$0?0$0A@$0?0$0?0@2@@?$unaligned_assign_impl@$0A@@internal@Eigen@@SAXAEBV?$Matrix@N$0?0$00$0A@$0?0$00@2@AEAV?$Matrix@N$0?0$0?0$0A@$0?0$0?0@2@_J2@Z DD imagerel $LN31
	DD	imagerel $LN31+169
	DD	imagerel $unwind$??$run@V?$Matrix@N$0?0$00$0A@$0?0$00@Eigen@@V?$Matrix@N$0?0$0?0$0A@$0?0$0?0@2@@?$unaligned_assign_impl@$0A@@internal@Eigen@@SAXAEBV?$Matrix@N$0?0$00$0A@$0?0$00@2@AEAV?$Matrix@N$0?0$0?0$0A@$0?0$0?0@2@_J2@Z
pdata	ENDS
;	COMDAT pdata
pdata	SEGMENT
$pdata$??$resizeLike@V?$Matrix@N$0?0$00$0A@$0?0$00@Eigen@@@?$PlainObjectBase@V?$Matrix@N$0?0$0?0$0A@$0?0$0?0@Eigen@@@Eigen@@QEAAXAEBU?$EigenBase@V?$Matrix@N$0?0$00$0A@$0?0$00@Eigen@@@1@@Z DD imagerel $LN159
	DD	imagerel $LN159+181
	DD	imagerel $unwind$??$resizeLike@V?$Matrix@N$0?0$00$0A@$0?0$00@Eigen@@@?$PlainObjectBase@V?$Matrix@N$0?0$0?0$0A@$0?0$0?0@Eigen@@@Eigen@@QEAAXAEBU?$EigenBase@V?$Matrix@N$0?0$00$0A@$0?0$00@Eigen@@@1@@Z
pdata	ENDS
;	COMDAT pdata
pdata	SEGMENT
$pdata$??$evalTo@V?$Matrix@N$0?0$00$0A@$0?0$00@Eigen@@@?$ProductBase@V?$GeneralProduct@V?$Matrix@N$0?0$0?0$0A@$0?0$0?0@Eigen@@V?$MatrixWrapper@$$CBV?$CwiseUnaryOp@U?$scalar_exp_op@N@internal@Eigen@@$$CBV?$ArrayWrapper@V?$Matrix@N$0?0$00$0A@$0?0$00@Eigen@@@3@@Eigen@@@2@$03@Eigen@@V?$Matrix@N$0?0$0?0$0A@$0?0$0?0@2@V?$MatrixWrapper@$$CBV?$CwiseUnaryOp@U?$scalar_exp_op@N@internal@Eigen@@$$CBV?$ArrayWrapper@V?$Matrix@N$0?0$00$0A@$0?0$00@Eigen@@@3@@Eigen@@@2@@Eigen@@QEBAXAEAV?$Matrix@N$0?0$00$0A@$0?0$00@1@@Z DD imagerel $LN417
	DD	imagerel $LN417+339
	DD	imagerel $unwind$??$evalTo@V?$Matrix@N$0?0$00$0A@$0?0$00@Eigen@@@?$ProductBase@V?$GeneralProduct@V?$Matrix@N$0?0$0?0$0A@$0?0$0?0@Eigen@@V?$MatrixWrapper@$$CBV?$CwiseUnaryOp@U?$scalar_exp_op@N@internal@Eigen@@$$CBV?$ArrayWrapper@V?$Matrix@N$0?0$00$0A@$0?0$00@Eigen@@@3@@Eigen@@@2@$03@Eigen@@V?$Matrix@N$0?0$0?0$0A@$0?0$0?0@2@V?$MatrixWrapper@$$CBV?$CwiseUnaryOp@U?$scalar_exp_op@N@internal@Eigen@@$$CBV?$ArrayWrapper@V?$Matrix@N$0?0$00$0A@$0?0$00@Eigen@@@3@@Eigen@@@2@@Eigen@@QEBAXAEAV?$Matrix@N$0?0$00$0A@$0?0$00@1@@Z
pdata	ENDS
;	COMDAT pdata
pdata	SEGMENT
$pdata$??$resizeLike@V?$GeneralProduct@V?$Matrix@N$0?0$0?0$0A@$0?0$0?0@Eigen@@V?$MatrixWrapper@$$CBV?$CwiseUnaryOp@U?$scalar_exp_op@N@internal@Eigen@@$$CBV?$ArrayWrapper@V?$Matrix@N$0?0$00$0A@$0?0$00@Eigen@@@3@@Eigen@@@2@$03@Eigen@@@?$PlainObjectBase@V?$Matrix@N$0?0$00$0A@$0?0$00@Eigen@@@Eigen@@QEAAXAEBU?$EigenBase@V?$GeneralProduct@V?$Matrix@N$0?0$0?0$0A@$0?0$0?0@Eigen@@V?$MatrixWrapper@$$CBV?$CwiseUnaryOp@U?$scalar_exp_op@N@internal@Eigen@@$$CBV?$ArrayWrapper@V?$Matrix@N$0?0$00$0A@$0?0$00@Eigen@@@3@@Eigen@@@2@$03@Eigen@@@1@@Z DD imagerel $LN212
	DD	imagerel $LN212+168
	DD	imagerel $unwind$??$resizeLike@V?$GeneralProduct@V?$Matrix@N$0?0$0?0$0A@$0?0$0?0@Eigen@@V?$MatrixWrapper@$$CBV?$CwiseUnaryOp@U?$scalar_exp_op@N@internal@Eigen@@$$CBV?$ArrayWrapper@V?$Matrix@N$0?0$00$0A@$0?0$00@Eigen@@@3@@Eigen@@@2@$03@Eigen@@@?$PlainObjectBase@V?$Matrix@N$0?0$00$0A@$0?0$00@Eigen@@@Eigen@@QEAAXAEBU?$EigenBase@V?$GeneralProduct@V?$Matrix@N$0?0$0?0$0A@$0?0$0?0@Eigen@@V?$MatrixWrapper@$$CBV?$CwiseUnaryOp@U?$scalar_exp_op@N@internal@Eigen@@$$CBV?$ArrayWrapper@V?$Matrix@N$0?0$00$0A@$0?0$00@Eigen@@@3@@Eigen@@@2@$03@Eigen@@@1@@Z
pdata	ENDS
;	COMDAT pdata
pdata	SEGMENT
$pdata$??$resizeLike@V?$GeneralProduct@V?$Matrix@N$0?0$0?0$0A@$0?0$0?0@Eigen@@V?$MatrixWrapper@$$CBV?$CwiseUnaryOp@U?$scalar_exp_op@N@internal@Eigen@@$$CBV?$ArrayWrapper@$$CBV?$Matrix@N$0?0$00$0A@$0?0$00@Eigen@@@3@@Eigen@@@2@$03@Eigen@@@?$PlainObjectBase@V?$Matrix@N$0?0$00$0A@$0?0$00@Eigen@@@Eigen@@QEAAXAEBU?$EigenBase@V?$GeneralProduct@V?$Matrix@N$0?0$0?0$0A@$0?0$0?0@Eigen@@V?$MatrixWrapper@$$CBV?$CwiseUnaryOp@U?$scalar_exp_op@N@internal@Eigen@@$$CBV?$ArrayWrapper@$$CBV?$Matrix@N$0?0$00$0A@$0?0$00@Eigen@@@3@@Eigen@@@2@$03@Eigen@@@1@@Z DD imagerel $LN212
	DD	imagerel $LN212+168
	DD	imagerel $unwind$??$resizeLike@V?$GeneralProduct@V?$Matrix@N$0?0$0?0$0A@$0?0$0?0@Eigen@@V?$MatrixWrapper@$$CBV?$CwiseUnaryOp@U?$scalar_exp_op@N@internal@Eigen@@$$CBV?$ArrayWrapper@$$CBV?$Matrix@N$0?0$00$0A@$0?0$00@Eigen@@@3@@Eigen@@@2@$03@Eigen@@@?$PlainObjectBase@V?$Matrix@N$0?0$00$0A@$0?0$00@Eigen@@@Eigen@@QEAAXAEBU?$EigenBase@V?$GeneralProduct@V?$Matrix@N$0?0$0?0$0A@$0?0$0?0@Eigen@@V?$MatrixWrapper@$$CBV?$CwiseUnaryOp@U?$scalar_exp_op@N@internal@Eigen@@$$CBV?$ArrayWrapper@$$CBV?$Matrix@N$0?0$00$0A@$0?0$00@Eigen@@@3@@Eigen@@@2@$03@Eigen@@@1@@Z
pdata	ENDS
;	COMDAT pdata
pdata	SEGMENT
$pdata$?run@?$assign_impl@V?$Matrix@N$0?0$0?0$0A@$0?0$0?0@Eigen@@V?$Matrix@N$0?0$00$0A@$0?0$00@2@$02$0A@$0A@@internal@Eigen@@SAXAEAV?$Matrix@N$0?0$0?0$0A@$0?0$0?0@3@AEBV?$Matrix@N$0?0$00$0A@$0?0$00@3@@Z DD imagerel $LN75
	DD	imagerel $LN75+93
	DD	imagerel $unwind$?run@?$assign_impl@V?$Matrix@N$0?0$0?0$0A@$0?0$0?0@Eigen@@V?$Matrix@N$0?0$00$0A@$0?0$00@2@$02$0A@$0A@@internal@Eigen@@SAXAEAV?$Matrix@N$0?0$0?0$0A@$0?0$0?0@3@AEBV?$Matrix@N$0?0$00$0A@$0?0$00@3@@Z
pdata	ENDS
;	COMDAT pdata
pdata	SEGMENT
$pdata$??$lazyAssign@V?$Matrix@N$0?0$00$0A@$0?0$00@Eigen@@@?$DenseBase@V?$Matrix@N$0?0$0?0$0A@$0?0$0?0@Eigen@@@Eigen@@QEAAAEAV?$Matrix@N$0?0$0?0$0A@$0?0$0?0@1@AEBV?$DenseBase@V?$Matrix@N$0?0$00$0A@$0?0$00@Eigen@@@1@@Z DD imagerel $LN119
	DD	imagerel $LN119+148
	DD	imagerel $unwind$??$lazyAssign@V?$Matrix@N$0?0$00$0A@$0?0$00@Eigen@@@?$DenseBase@V?$Matrix@N$0?0$0?0$0A@$0?0$0?0@Eigen@@@Eigen@@QEAAAEAV?$Matrix@N$0?0$0?0$0A@$0?0$0?0@1@AEBV?$DenseBase@V?$Matrix@N$0?0$00$0A@$0?0$00@Eigen@@@1@@Z
pdata	ENDS
;	COMDAT pdata
pdata	SEGMENT
$pdata$??$_resize_to_match@V?$Matrix@N$0?0$00$0A@$0?0$00@Eigen@@@?$PlainObjectBase@V?$Matrix@N$0?0$0?0$0A@$0?0$0?0@Eigen@@@Eigen@@IEAAXAEBU?$EigenBase@V?$Matrix@N$0?0$00$0A@$0?0$00@Eigen@@@1@@Z DD imagerel $LN162
	DD	imagerel $LN162+181
	DD	imagerel $unwind$??$_resize_to_match@V?$Matrix@N$0?0$00$0A@$0?0$00@Eigen@@@?$PlainObjectBase@V?$Matrix@N$0?0$0?0$0A@$0?0$0?0@Eigen@@@Eigen@@IEAAXAEBU?$EigenBase@V?$Matrix@N$0?0$00$0A@$0?0$00@Eigen@@@1@@Z
pdata	ENDS
;	COMDAT pdata
pdata	SEGMENT
$pdata$??$lazyAssign@V?$GeneralProduct@V?$Matrix@N$0?0$0?0$0A@$0?0$0?0@Eigen@@V?$MatrixWrapper@$$CBV?$CwiseUnaryOp@U?$scalar_exp_op@N@internal@Eigen@@$$CBV?$ArrayWrapper@V?$Matrix@N$0?0$00$0A@$0?0$00@Eigen@@@3@@Eigen@@@2@$03@Eigen@@V?$Matrix@N$0?0$0?0$0A@$0?0$0?0@2@V?$MatrixWrapper@$$CBV?$CwiseUnaryOp@U?$scalar_exp_op@N@internal@Eigen@@$$CBV?$ArrayWrapper@V?$Matrix@N$0?0$00$0A@$0?0$00@Eigen@@@3@@Eigen@@@2@@?$MatrixBase@V?$Matrix@N$0?0$00$0A@$0?0$00@Eigen@@@Eigen@@QEAAAEAV?$Matrix@N$0?0$00$0A@$0?0$00@1@AEBV?$ProductBase@V?$GeneralProduct@V?$Matrix@N$0?0$0?0$0A@$0?0$0?0@Eigen@@V?$MatrixWrapper@$$CBV?$CwiseUnaryOp@U?$scalar_exp_op@N@internal@Eigen@@$$CBV?$ArrayWrapper@V?$Matrix@N$0?0$00$0A@$0?0$00@Eigen@@@3@@Eigen@@@2@$03@Eigen@@V?$Matrix@N$0?0$0?0$0A@$0?0$0?0@2@V?$MatrixWrapper@$$CBV?$CwiseUnaryOp@U?$scalar_exp_op@N@internal@Eigen@@$$CBV?$ArrayWrapper@V?$Matrix@N$0?0$00$0A@$0?0$00@Eigen@@@3@@Eigen@@@2@@1@@Z DD imagerel $LN10
	DD	imagerel $LN10+32
	DD	imagerel $unwind$??$lazyAssign@V?$GeneralProduct@V?$Matrix@N$0?0$0?0$0A@$0?0$0?0@Eigen@@V?$MatrixWrapper@$$CBV?$CwiseUnaryOp@U?$scalar_exp_op@N@internal@Eigen@@$$CBV?$ArrayWrapper@V?$Matrix@N$0?0$00$0A@$0?0$00@Eigen@@@3@@Eigen@@@2@$03@Eigen@@V?$Matrix@N$0?0$0?0$0A@$0?0$0?0@2@V?$MatrixWrapper@$$CBV?$CwiseUnaryOp@U?$scalar_exp_op@N@internal@Eigen@@$$CBV?$ArrayWrapper@V?$Matrix@N$0?0$00$0A@$0?0$00@Eigen@@@3@@Eigen@@@2@@?$MatrixBase@V?$Matrix@N$0?0$00$0A@$0?0$00@Eigen@@@Eigen@@QEAAAEAV?$Matrix@N$0?0$00$0A@$0?0$00@1@AEBV?$ProductBase@V?$GeneralProduct@V?$Matrix@N$0?0$0?0$0A@$0?0$0?0@Eigen@@V?$MatrixWrapper@$$CBV?$CwiseUnaryOp@U?$scalar_exp_op@N@internal@Eigen@@$$CBV?$ArrayWrapper@V?$Matrix@N$0?0$00$0A@$0?0$00@Eigen@@@3@@Eigen@@@2@$03@Eigen@@V?$Matrix@N$0?0$0?0$0A@$0?0$0?0@2@V?$MatrixWrapper@$$CBV?$CwiseUnaryOp@U?$scalar_exp_op@N@internal@Eigen@@$$CBV?$ArrayWrapper@V?$Matrix@N$0?0$00$0A@$0?0$00@Eigen@@@3@@Eigen@@@2@@1@@Z
pdata	ENDS
;	COMDAT pdata
pdata	SEGMENT
$pdata$??$_resize_to_match@V?$GeneralProduct@V?$Matrix@N$0?0$0?0$0A@$0?0$0?0@Eigen@@V?$MatrixWrapper@$$CBV?$CwiseUnaryOp@U?$scalar_exp_op@N@internal@Eigen@@$$CBV?$ArrayWrapper@V?$Matrix@N$0?0$00$0A@$0?0$00@Eigen@@@3@@Eigen@@@2@$03@Eigen@@@?$PlainObjectBase@V?$Matrix@N$0?0$00$0A@$0?0$00@Eigen@@@Eigen@@IEAAXAEBU?$EigenBase@V?$GeneralProduct@V?$Matrix@N$0?0$0?0$0A@$0?0$0?0@Eigen@@V?$MatrixWrapper@$$CBV?$CwiseUnaryOp@U?$scalar_exp_op@N@internal@Eigen@@$$CBV?$ArrayWrapper@V?$Matrix@N$0?0$00$0A@$0?0$00@Eigen@@@3@@Eigen@@@2@$03@Eigen@@@1@@Z DD imagerel $LN215
	DD	imagerel $LN215+168
	DD	imagerel $unwind$??$_resize_to_match@V?$GeneralProduct@V?$Matrix@N$0?0$0?0$0A@$0?0$0?0@Eigen@@V?$MatrixWrapper@$$CBV?$CwiseUnaryOp@U?$scalar_exp_op@N@internal@Eigen@@$$CBV?$ArrayWrapper@V?$Matrix@N$0?0$00$0A@$0?0$00@Eigen@@@3@@Eigen@@@2@$03@Eigen@@@?$PlainObjectBase@V?$Matrix@N$0?0$00$0A@$0?0$00@Eigen@@@Eigen@@IEAAXAEBU?$EigenBase@V?$GeneralProduct@V?$Matrix@N$0?0$0?0$0A@$0?0$0?0@Eigen@@V?$MatrixWrapper@$$CBV?$CwiseUnaryOp@U?$scalar_exp_op@N@internal@Eigen@@$$CBV?$ArrayWrapper@V?$Matrix@N$0?0$00$0A@$0?0$00@Eigen@@@3@@Eigen@@@2@$03@Eigen@@@1@@Z
pdata	ENDS
;	COMDAT pdata
pdata	SEGMENT
$pdata$??$lazyAssign@V?$GeneralProduct@V?$Matrix@N$0?0$0?0$0A@$0?0$0?0@Eigen@@V?$MatrixWrapper@$$CBV?$CwiseUnaryOp@U?$scalar_exp_op@N@internal@Eigen@@$$CBV?$ArrayWrapper@$$CBV?$Matrix@N$0?0$00$0A@$0?0$00@Eigen@@@3@@Eigen@@@2@$03@Eigen@@V?$Matrix@N$0?0$0?0$0A@$0?0$0?0@2@V?$MatrixWrapper@$$CBV?$CwiseUnaryOp@U?$scalar_exp_op@N@internal@Eigen@@$$CBV?$ArrayWrapper@$$CBV?$Matrix@N$0?0$00$0A@$0?0$00@Eigen@@@3@@Eigen@@@2@@?$MatrixBase@V?$Matrix@N$0?0$00$0A@$0?0$00@Eigen@@@Eigen@@QEAAAEAV?$Matrix@N$0?0$00$0A@$0?0$00@1@AEBV?$ProductBase@V?$GeneralProduct@V?$Matrix@N$0?0$0?0$0A@$0?0$0?0@Eigen@@V?$MatrixWrapper@$$CBV?$CwiseUnaryOp@U?$scalar_exp_op@N@internal@Eigen@@$$CBV?$ArrayWrapper@$$CBV?$Matrix@N$0?0$00$0A@$0?0$00@Eigen@@@3@@Eigen@@@2@$03@Eigen@@V?$Matrix@N$0?0$0?0$0A@$0?0$0?0@2@V?$MatrixWrapper@$$CBV?$CwiseUnaryOp@U?$scalar_exp_op@N@internal@Eigen@@$$CBV?$ArrayWrapper@$$CBV?$Matrix@N$0?0$00$0A@$0?0$00@Eigen@@@3@@Eigen@@@2@@1@@Z DD imagerel $LN10
	DD	imagerel $LN10+32
	DD	imagerel $unwind$??$lazyAssign@V?$GeneralProduct@V?$Matrix@N$0?0$0?0$0A@$0?0$0?0@Eigen@@V?$MatrixWrapper@$$CBV?$CwiseUnaryOp@U?$scalar_exp_op@N@internal@Eigen@@$$CBV?$ArrayWrapper@$$CBV?$Matrix@N$0?0$00$0A@$0?0$00@Eigen@@@3@@Eigen@@@2@$03@Eigen@@V?$Matrix@N$0?0$0?0$0A@$0?0$0?0@2@V?$MatrixWrapper@$$CBV?$CwiseUnaryOp@U?$scalar_exp_op@N@internal@Eigen@@$$CBV?$ArrayWrapper@$$CBV?$Matrix@N$0?0$00$0A@$0?0$00@Eigen@@@3@@Eigen@@@2@@?$MatrixBase@V?$Matrix@N$0?0$00$0A@$0?0$00@Eigen@@@Eigen@@QEAAAEAV?$Matrix@N$0?0$00$0A@$0?0$00@1@AEBV?$ProductBase@V?$GeneralProduct@V?$Matrix@N$0?0$0?0$0A@$0?0$0?0@Eigen@@V?$MatrixWrapper@$$CBV?$CwiseUnaryOp@U?$scalar_exp_op@N@internal@Eigen@@$$CBV?$ArrayWrapper@$$CBV?$Matrix@N$0?0$00$0A@$0?0$00@Eigen@@@3@@Eigen@@@2@$03@Eigen@@V?$Matrix@N$0?0$0?0$0A@$0?0$0?0@2@V?$MatrixWrapper@$$CBV?$CwiseUnaryOp@U?$scalar_exp_op@N@internal@Eigen@@$$CBV?$ArrayWrapper@$$CBV?$Matrix@N$0?0$00$0A@$0?0$00@Eigen@@@3@@Eigen@@@2@@1@@Z
pdata	ENDS
;	COMDAT pdata
pdata	SEGMENT
$pdata$??$_resize_to_match@V?$GeneralProduct@V?$Matrix@N$0?0$0?0$0A@$0?0$0?0@Eigen@@V?$MatrixWrapper@$$CBV?$CwiseUnaryOp@U?$scalar_exp_op@N@internal@Eigen@@$$CBV?$ArrayWrapper@$$CBV?$Matrix@N$0?0$00$0A@$0?0$00@Eigen@@@3@@Eigen@@@2@$03@Eigen@@@?$PlainObjectBase@V?$Matrix@N$0?0$00$0A@$0?0$00@Eigen@@@Eigen@@IEAAXAEBU?$EigenBase@V?$GeneralProduct@V?$Matrix@N$0?0$0?0$0A@$0?0$0?0@Eigen@@V?$MatrixWrapper@$$CBV?$CwiseUnaryOp@U?$scalar_exp_op@N@internal@Eigen@@$$CBV?$ArrayWrapper@$$CBV?$Matrix@N$0?0$00$0A@$0?0$00@Eigen@@@3@@Eigen@@@2@$03@Eigen@@@1@@Z DD imagerel $LN215
	DD	imagerel $LN215+168
	DD	imagerel $unwind$??$_resize_to_match@V?$GeneralProduct@V?$Matrix@N$0?0$0?0$0A@$0?0$0?0@Eigen@@V?$MatrixWrapper@$$CBV?$CwiseUnaryOp@U?$scalar_exp_op@N@internal@Eigen@@$$CBV?$ArrayWrapper@$$CBV?$Matrix@N$0?0$00$0A@$0?0$00@Eigen@@@3@@Eigen@@@2@$03@Eigen@@@?$PlainObjectBase@V?$Matrix@N$0?0$00$0A@$0?0$00@Eigen@@@Eigen@@IEAAXAEBU?$EigenBase@V?$GeneralProduct@V?$Matrix@N$0?0$0?0$0A@$0?0$0?0@Eigen@@V?$MatrixWrapper@$$CBV?$CwiseUnaryOp@U?$scalar_exp_op@N@internal@Eigen@@$$CBV?$ArrayWrapper@$$CBV?$Matrix@N$0?0$00$0A@$0?0$00@Eigen@@@3@@Eigen@@@2@$03@Eigen@@@1@@Z
pdata	ENDS
;	COMDAT pdata
pdata	SEGMENT
$pdata$?run@?$assign_impl@V?$SelfCwiseBinaryOp@U?$scalar_sum_op@N@internal@Eigen@@V?$Matrix@N$0?0$00$0A@$0?0$00@3@V?$Block@V?$Matrix@N$0?0$00$0A@$0?0$00@Eigen@@$0?0$0?0$0A@@3@@Eigen@@V?$Block@V?$Matrix@N$0?0$00$0A@$0?0$00@Eigen@@$0?0$0?0$0A@@2@$03$0A@$0A@@internal@Eigen@@SAXAEAV?$SelfCwiseBinaryOp@U?$scalar_sum_op@N@internal@Eigen@@V?$Matrix@N$0?0$00$0A@$0?0$00@3@V?$Block@V?$Matrix@N$0?0$00$0A@$0?0$00@Eigen@@$0?0$0?0$0A@@3@@3@AEBV?$Block@V?$Matrix@N$0?0$00$0A@$0?0$00@Eigen@@$0?0$0?0$0A@@3@@Z DD imagerel $LN710
	DD	imagerel $LN710+23
	DD	imagerel $unwind$?run@?$assign_impl@V?$SelfCwiseBinaryOp@U?$scalar_sum_op@N@internal@Eigen@@V?$Matrix@N$0?0$00$0A@$0?0$00@3@V?$Block@V?$Matrix@N$0?0$00$0A@$0?0$00@Eigen@@$0?0$0?0$0A@@3@@Eigen@@V?$Block@V?$Matrix@N$0?0$00$0A@$0?0$00@Eigen@@$0?0$0?0$0A@@2@$03$0A@$0A@@internal@Eigen@@SAXAEAV?$SelfCwiseBinaryOp@U?$scalar_sum_op@N@internal@Eigen@@V?$Matrix@N$0?0$00$0A@$0?0$00@3@V?$Block@V?$Matrix@N$0?0$00$0A@$0?0$00@Eigen@@$0?0$0?0$0A@@3@@3@AEBV?$Block@V?$Matrix@N$0?0$00$0A@$0?0$00@Eigen@@$0?0$0?0$0A@@3@@Z
pdata	ENDS
;	COMDAT pdata
pdata	SEGMENT
$pdata$0$?run@?$assign_impl@V?$SelfCwiseBinaryOp@U?$scalar_sum_op@N@internal@Eigen@@V?$Matrix@N$0?0$00$0A@$0?0$00@3@V?$Block@V?$Matrix@N$0?0$00$0A@$0?0$00@Eigen@@$0?0$0?0$0A@@3@@Eigen@@V?$Block@V?$Matrix@N$0?0$00$0A@$0?0$00@Eigen@@$0?0$0?0$0A@@2@$03$0A@$0A@@internal@Eigen@@SAXAEAV?$SelfCwiseBinaryOp@U?$scalar_sum_op@N@internal@Eigen@@V?$Matrix@N$0?0$00$0A@$0?0$00@3@V?$Block@V?$Matrix@N$0?0$00$0A@$0?0$00@Eigen@@$0?0$0?0$0A@@3@@3@AEBV?$Block@V?$Matrix@N$0?0$00$0A@$0?0$00@Eigen@@$0?0$0?0$0A@@3@@Z DD imagerel $LN710+23
	DD	imagerel $LN710+117
	DD	imagerel $chain$0$?run@?$assign_impl@V?$SelfCwiseBinaryOp@U?$scalar_sum_op@N@internal@Eigen@@V?$Matrix@N$0?0$00$0A@$0?0$00@3@V?$Block@V?$Matrix@N$0?0$00$0A@$0?0$00@Eigen@@$0?0$0?0$0A@@3@@Eigen@@V?$Block@V?$Matrix@N$0?0$00$0A@$0?0$00@Eigen@@$0?0$0?0$0A@@2@$03$0A@$0A@@internal@Eigen@@SAXAEAV?$SelfCwiseBinaryOp@U?$scalar_sum_op@N@internal@Eigen@@V?$Matrix@N$0?0$00$0A@$0?0$00@3@V?$Block@V?$Matrix@N$0?0$00$0A@$0?0$00@Eigen@@$0?0$0?0$0A@@3@@3@AEBV?$Block@V?$Matrix@N$0?0$00$0A@$0?0$00@Eigen@@$0?0$0?0$0A@@3@@Z
pdata	ENDS
;	COMDAT pdata
pdata	SEGMENT
$pdata$1$?run@?$assign_impl@V?$SelfCwiseBinaryOp@U?$scalar_sum_op@N@internal@Eigen@@V?$Matrix@N$0?0$00$0A@$0?0$00@3@V?$Block@V?$Matrix@N$0?0$00$0A@$0?0$00@Eigen@@$0?0$0?0$0A@@3@@Eigen@@V?$Block@V?$Matrix@N$0?0$00$0A@$0?0$00@Eigen@@$0?0$0?0$0A@@2@$03$0A@$0A@@internal@Eigen@@SAXAEAV?$SelfCwiseBinaryOp@U?$scalar_sum_op@N@internal@Eigen@@V?$Matrix@N$0?0$00$0A@$0?0$00@3@V?$Block@V?$Matrix@N$0?0$00$0A@$0?0$00@Eigen@@$0?0$0?0$0A@@3@@3@AEBV?$Block@V?$Matrix@N$0?0$00$0A@$0?0$00@Eigen@@$0?0$0?0$0A@@3@@Z DD imagerel $LN710+117
	DD	imagerel $LN710+267
	DD	imagerel $chain$1$?run@?$assign_impl@V?$SelfCwiseBinaryOp@U?$scalar_sum_op@N@internal@Eigen@@V?$Matrix@N$0?0$00$0A@$0?0$00@3@V?$Block@V?$Matrix@N$0?0$00$0A@$0?0$00@Eigen@@$0?0$0?0$0A@@3@@Eigen@@V?$Block@V?$Matrix@N$0?0$00$0A@$0?0$00@Eigen@@$0?0$0?0$0A@@2@$03$0A@$0A@@internal@Eigen@@SAXAEAV?$SelfCwiseBinaryOp@U?$scalar_sum_op@N@internal@Eigen@@V?$Matrix@N$0?0$00$0A@$0?0$00@3@V?$Block@V?$Matrix@N$0?0$00$0A@$0?0$00@Eigen@@$0?0$0?0$0A@@3@@3@AEBV?$Block@V?$Matrix@N$0?0$00$0A@$0?0$00@Eigen@@$0?0$0?0$0A@@3@@Z
pdata	ENDS
;	COMDAT pdata
pdata	SEGMENT
$pdata$2$?run@?$assign_impl@V?$SelfCwiseBinaryOp@U?$scalar_sum_op@N@internal@Eigen@@V?$Matrix@N$0?0$00$0A@$0?0$00@3@V?$Block@V?$Matrix@N$0?0$00$0A@$0?0$00@Eigen@@$0?0$0?0$0A@@3@@Eigen@@V?$Block@V?$Matrix@N$0?0$00$0A@$0?0$00@Eigen@@$0?0$0?0$0A@@2@$03$0A@$0A@@internal@Eigen@@SAXAEAV?$SelfCwiseBinaryOp@U?$scalar_sum_op@N@internal@Eigen@@V?$Matrix@N$0?0$00$0A@$0?0$00@3@V?$Block@V?$Matrix@N$0?0$00$0A@$0?0$00@Eigen@@$0?0$0?0$0A@@3@@3@AEBV?$Block@V?$Matrix@N$0?0$00$0A@$0?0$00@Eigen@@$0?0$0?0$0A@@3@@Z DD imagerel $LN710+267
	DD	imagerel $LN710+320
	DD	imagerel $chain$2$?run@?$assign_impl@V?$SelfCwiseBinaryOp@U?$scalar_sum_op@N@internal@Eigen@@V?$Matrix@N$0?0$00$0A@$0?0$00@3@V?$Block@V?$Matrix@N$0?0$00$0A@$0?0$00@Eigen@@$0?0$0?0$0A@@3@@Eigen@@V?$Block@V?$Matrix@N$0?0$00$0A@$0?0$00@Eigen@@$0?0$0?0$0A@@2@$03$0A@$0A@@internal@Eigen@@SAXAEAV?$SelfCwiseBinaryOp@U?$scalar_sum_op@N@internal@Eigen@@V?$Matrix@N$0?0$00$0A@$0?0$00@3@V?$Block@V?$Matrix@N$0?0$00$0A@$0?0$00@Eigen@@$0?0$0?0$0A@@3@@3@AEBV?$Block@V?$Matrix@N$0?0$00$0A@$0?0$00@Eigen@@$0?0$0?0$0A@@3@@Z
pdata	ENDS
;	COMDAT pdata
pdata	SEGMENT
$pdata$3$?run@?$assign_impl@V?$SelfCwiseBinaryOp@U?$scalar_sum_op@N@internal@Eigen@@V?$Matrix@N$0?0$00$0A@$0?0$00@3@V?$Block@V?$Matrix@N$0?0$00$0A@$0?0$00@Eigen@@$0?0$0?0$0A@@3@@Eigen@@V?$Block@V?$Matrix@N$0?0$00$0A@$0?0$00@Eigen@@$0?0$0?0$0A@@2@$03$0A@$0A@@internal@Eigen@@SAXAEAV?$SelfCwiseBinaryOp@U?$scalar_sum_op@N@internal@Eigen@@V?$Matrix@N$0?0$00$0A@$0?0$00@3@V?$Block@V?$Matrix@N$0?0$00$0A@$0?0$00@Eigen@@$0?0$0?0$0A@@3@@3@AEBV?$Block@V?$Matrix@N$0?0$00$0A@$0?0$00@Eigen@@$0?0$0?0$0A@@3@@Z DD imagerel $LN710+320
	DD	imagerel $LN710+424
	DD	imagerel $chain$3$?run@?$assign_impl@V?$SelfCwiseBinaryOp@U?$scalar_sum_op@N@internal@Eigen@@V?$Matrix@N$0?0$00$0A@$0?0$00@3@V?$Block@V?$Matrix@N$0?0$00$0A@$0?0$00@Eigen@@$0?0$0?0$0A@@3@@Eigen@@V?$Block@V?$Matrix@N$0?0$00$0A@$0?0$00@Eigen@@$0?0$0?0$0A@@2@$03$0A@$0A@@internal@Eigen@@SAXAEAV?$SelfCwiseBinaryOp@U?$scalar_sum_op@N@internal@Eigen@@V?$Matrix@N$0?0$00$0A@$0?0$00@3@V?$Block@V?$Matrix@N$0?0$00$0A@$0?0$00@Eigen@@$0?0$0?0$0A@@3@@3@AEBV?$Block@V?$Matrix@N$0?0$00$0A@$0?0$00@Eigen@@$0?0$0?0$0A@@3@@Z
pdata	ENDS
;	COMDAT pdata
pdata	SEGMENT
$pdata$??$lazyAssign@V?$Block@V?$Matrix@N$0?0$00$0A@$0?0$00@Eigen@@$0?0$0?0$0A@@Eigen@@@?$SelfCwiseBinaryOp@U?$scalar_sum_op@N@internal@Eigen@@V?$Matrix@N$0?0$00$0A@$0?0$00@3@V?$Block@V?$Matrix@N$0?0$00$0A@$0?0$00@Eigen@@$0?0$0?0$0A@@3@@Eigen@@QEAAAEAV01@AEBV?$DenseBase@V?$Block@V?$Matrix@N$0?0$00$0A@$0?0$00@Eigen@@$0?0$0?0$0A@@Eigen@@@1@@Z DD imagerel $LN38
	DD	imagerel $LN38+87
	DD	imagerel $unwind$??$lazyAssign@V?$Block@V?$Matrix@N$0?0$00$0A@$0?0$00@Eigen@@$0?0$0?0$0A@@Eigen@@@?$SelfCwiseBinaryOp@U?$scalar_sum_op@N@internal@Eigen@@V?$Matrix@N$0?0$00$0A@$0?0$00@3@V?$Block@V?$Matrix@N$0?0$00$0A@$0?0$00@Eigen@@$0?0$0?0$0A@@3@@Eigen@@QEAAAEAV01@AEBV?$DenseBase@V?$Block@V?$Matrix@N$0?0$00$0A@$0?0$00@Eigen@@$0?0$0?0$0A@@Eigen@@@1@@Z
pdata	ENDS
;	COMDAT pdata
pdata	SEGMENT
$pdata$??$lazyAssign@V?$Matrix@N$0?0$00$0A@$0?0$00@Eigen@@@?$PlainObjectBase@V?$Matrix@N$0?0$0?0$0A@$0?0$0?0@Eigen@@@Eigen@@QEAAAEAV?$Matrix@N$0?0$0?0$0A@$0?0$0?0@1@AEBV?$DenseBase@V?$Matrix@N$0?0$00$0A@$0?0$00@Eigen@@@1@@Z DD imagerel $LN284
	DD	imagerel $LN284+289
	DD	imagerel $unwind$??$lazyAssign@V?$Matrix@N$0?0$00$0A@$0?0$00@Eigen@@@?$PlainObjectBase@V?$Matrix@N$0?0$0?0$0A@$0?0$0?0@Eigen@@@Eigen@@QEAAAEAV?$Matrix@N$0?0$0?0$0A@$0?0$0?0@1@AEBV?$DenseBase@V?$Matrix@N$0?0$00$0A@$0?0$00@Eigen@@@1@@Z
pdata	ENDS
;	COMDAT pdata
pdata	SEGMENT
$pdata$??$lazyAssign@V?$GeneralProduct@V?$Matrix@N$0?0$0?0$0A@$0?0$0?0@Eigen@@V?$MatrixWrapper@$$CBV?$CwiseUnaryOp@U?$scalar_exp_op@N@internal@Eigen@@$$CBV?$ArrayWrapper@V?$Matrix@N$0?0$00$0A@$0?0$00@Eigen@@@3@@Eigen@@@2@$03@Eigen@@@?$PlainObjectBase@V?$Matrix@N$0?0$00$0A@$0?0$00@Eigen@@@Eigen@@QEAAAEAV?$Matrix@N$0?0$00$0A@$0?0$00@1@AEBV?$DenseBase@V?$GeneralProduct@V?$Matrix@N$0?0$0?0$0A@$0?0$0?0@Eigen@@V?$MatrixWrapper@$$CBV?$CwiseUnaryOp@U?$scalar_exp_op@N@internal@Eigen@@$$CBV?$ArrayWrapper@V?$Matrix@N$0?0$00$0A@$0?0$00@Eigen@@@3@@Eigen@@@2@$03@Eigen@@@1@@Z DD imagerel $LN228
	DD	imagerel $LN228+195
	DD	imagerel $unwind$??$lazyAssign@V?$GeneralProduct@V?$Matrix@N$0?0$0?0$0A@$0?0$0?0@Eigen@@V?$MatrixWrapper@$$CBV?$CwiseUnaryOp@U?$scalar_exp_op@N@internal@Eigen@@$$CBV?$ArrayWrapper@V?$Matrix@N$0?0$00$0A@$0?0$00@Eigen@@@3@@Eigen@@@2@$03@Eigen@@@?$PlainObjectBase@V?$Matrix@N$0?0$00$0A@$0?0$00@Eigen@@@Eigen@@QEAAAEAV?$Matrix@N$0?0$00$0A@$0?0$00@1@AEBV?$DenseBase@V?$GeneralProduct@V?$Matrix@N$0?0$0?0$0A@$0?0$0?0@Eigen@@V?$MatrixWrapper@$$CBV?$CwiseUnaryOp@U?$scalar_exp_op@N@internal@Eigen@@$$CBV?$ArrayWrapper@V?$Matrix@N$0?0$00$0A@$0?0$00@Eigen@@@3@@Eigen@@@2@$03@Eigen@@@1@@Z
pdata	ENDS
;	COMDAT pdata
pdata	SEGMENT
$pdata$??$lazyAssign@V?$GeneralProduct@V?$Matrix@N$0?0$0?0$0A@$0?0$0?0@Eigen@@V?$MatrixWrapper@$$CBV?$CwiseUnaryOp@U?$scalar_exp_op@N@internal@Eigen@@$$CBV?$ArrayWrapper@$$CBV?$Matrix@N$0?0$00$0A@$0?0$00@Eigen@@@3@@Eigen@@@2@$03@Eigen@@@?$PlainObjectBase@V?$Matrix@N$0?0$00$0A@$0?0$00@Eigen@@@Eigen@@QEAAAEAV?$Matrix@N$0?0$00$0A@$0?0$00@1@AEBV?$DenseBase@V?$GeneralProduct@V?$Matrix@N$0?0$0?0$0A@$0?0$0?0@Eigen@@V?$MatrixWrapper@$$CBV?$CwiseUnaryOp@U?$scalar_exp_op@N@internal@Eigen@@$$CBV?$ArrayWrapper@$$CBV?$Matrix@N$0?0$00$0A@$0?0$00@Eigen@@@3@@Eigen@@@2@$03@Eigen@@@1@@Z DD imagerel $LN228
	DD	imagerel $LN228+195
	DD	imagerel $unwind$??$lazyAssign@V?$GeneralProduct@V?$Matrix@N$0?0$0?0$0A@$0?0$0?0@Eigen@@V?$MatrixWrapper@$$CBV?$CwiseUnaryOp@U?$scalar_exp_op@N@internal@Eigen@@$$CBV?$ArrayWrapper@$$CBV?$Matrix@N$0?0$00$0A@$0?0$00@Eigen@@@3@@Eigen@@@2@$03@Eigen@@@?$PlainObjectBase@V?$Matrix@N$0?0$00$0A@$0?0$00@Eigen@@@Eigen@@QEAAAEAV?$Matrix@N$0?0$00$0A@$0?0$00@1@AEBV?$DenseBase@V?$GeneralProduct@V?$Matrix@N$0?0$0?0$0A@$0?0$0?0@Eigen@@V?$MatrixWrapper@$$CBV?$CwiseUnaryOp@U?$scalar_exp_op@N@internal@Eigen@@$$CBV?$ArrayWrapper@$$CBV?$Matrix@N$0?0$00$0A@$0?0$00@Eigen@@@3@@Eigen@@@2@$03@Eigen@@@1@@Z
pdata	ENDS
;	COMDAT pdata
pdata	SEGMENT
$pdata$??$_set_selector@V?$CwiseUnaryOp@U?$scalar_opposite_op@N@internal@Eigen@@$$CBV?$ReturnByValue@U?$solve_retval_base@V?$PartialPivLU@V?$Matrix@N$0?0$0?0$0A@$0?0$0?0@Eigen@@@Eigen@@V?$Matrix@N$0?0$00$0A@$0?0$00@2@@internal@Eigen@@@3@@Eigen@@@?$PlainObjectBase@V?$Matrix@N$0?0$00$0A@$0?0$00@Eigen@@@Eigen@@IEAAXAEBV?$CwiseUnaryOp@U?$scalar_opposite_op@N@internal@Eigen@@$$CBV?$ReturnByValue@U?$solve_retval_base@V?$PartialPivLU@V?$Matrix@N$0?0$0?0$0A@$0?0$0?0@Eigen@@@Eigen@@V?$Matrix@N$0?0$00$0A@$0?0$00@2@@internal@Eigen@@@3@@1@AEBUfalse_type@internal@1@@Z DD imagerel $LN370
	DD	imagerel $LN370+407
	DD	imagerel $unwind$??$_set_selector@V?$CwiseUnaryOp@U?$scalar_opposite_op@N@internal@Eigen@@$$CBV?$ReturnByValue@U?$solve_retval_base@V?$PartialPivLU@V?$Matrix@N$0?0$0?0$0A@$0?0$0?0@Eigen@@@Eigen@@V?$Matrix@N$0?0$00$0A@$0?0$00@2@@internal@Eigen@@@3@@Eigen@@@?$PlainObjectBase@V?$Matrix@N$0?0$00$0A@$0?0$00@Eigen@@@Eigen@@IEAAXAEBV?$CwiseUnaryOp@U?$scalar_opposite_op@N@internal@Eigen@@$$CBV?$ReturnByValue@U?$solve_retval_base@V?$PartialPivLU@V?$Matrix@N$0?0$0?0$0A@$0?0$0?0@Eigen@@@Eigen@@V?$Matrix@N$0?0$00$0A@$0?0$00@2@@internal@Eigen@@@3@@1@AEBUfalse_type@internal@1@@Z
pdata	ENDS
;	COMDAT pdata
pdata	SEGMENT
$pdata$?run@?$assign_impl@V?$Block@V?$Matrix@N$0?0$0?0$0A@$0?0$0?0@Eigen@@$0?0$0?0$0A@@Eigen@@V?$Transpose@V?$Matrix@N$0?0$0?0$0A@$0?0$0?0@Eigen@@@2@$0A@$0A@$0A@@internal@Eigen@@SAXAEAV?$Block@V?$Matrix@N$0?0$0?0$0A@$0?0$0?0@Eigen@@$0?0$0?0$0A@@3@AEBV?$Transpose@V?$Matrix@N$0?0$0?0$0A@$0?0$0?0@Eigen@@@3@@Z DD imagerel $LN254
	DD	imagerel $LN254+35
	DD	imagerel $unwind$?run@?$assign_impl@V?$Block@V?$Matrix@N$0?0$0?0$0A@$0?0$0?0@Eigen@@$0?0$0?0$0A@@Eigen@@V?$Transpose@V?$Matrix@N$0?0$0?0$0A@$0?0$0?0@Eigen@@@2@$0A@$0A@$0A@@internal@Eigen@@SAXAEAV?$Block@V?$Matrix@N$0?0$0?0$0A@$0?0$0?0@Eigen@@$0?0$0?0$0A@@3@AEBV?$Transpose@V?$Matrix@N$0?0$0?0$0A@$0?0$0?0@Eigen@@@3@@Z
pdata	ENDS
;	COMDAT pdata
pdata	SEGMENT
$pdata$2$?run@?$assign_impl@V?$Block@V?$Matrix@N$0?0$0?0$0A@$0?0$0?0@Eigen@@$0?0$0?0$0A@@Eigen@@V?$Transpose@V?$Matrix@N$0?0$0?0$0A@$0?0$0?0@Eigen@@@2@$0A@$0A@$0A@@internal@Eigen@@SAXAEAV?$Block@V?$Matrix@N$0?0$0?0$0A@$0?0$0?0@Eigen@@$0?0$0?0$0A@@3@AEBV?$Transpose@V?$Matrix@N$0?0$0?0$0A@$0?0$0?0@Eigen@@@3@@Z DD imagerel $LN254+35
	DD	imagerel $LN254+328
	DD	imagerel $chain$2$?run@?$assign_impl@V?$Block@V?$Matrix@N$0?0$0?0$0A@$0?0$0?0@Eigen@@$0?0$0?0$0A@@Eigen@@V?$Transpose@V?$Matrix@N$0?0$0?0$0A@$0?0$0?0@Eigen@@@2@$0A@$0A@$0A@@internal@Eigen@@SAXAEAV?$Block@V?$Matrix@N$0?0$0?0$0A@$0?0$0?0@Eigen@@$0?0$0?0$0A@@3@AEBV?$Transpose@V?$Matrix@N$0?0$0?0$0A@$0?0$0?0@Eigen@@@3@@Z
pdata	ENDS
;	COMDAT pdata
pdata	SEGMENT
$pdata$3$?run@?$assign_impl@V?$Block@V?$Matrix@N$0?0$0?0$0A@$0?0$0?0@Eigen@@$0?0$0?0$0A@@Eigen@@V?$Transpose@V?$Matrix@N$0?0$0?0$0A@$0?0$0?0@Eigen@@@2@$0A@$0A@$0A@@internal@Eigen@@SAXAEAV?$Block@V?$Matrix@N$0?0$0?0$0A@$0?0$0?0@Eigen@@$0?0$0?0$0A@@3@AEBV?$Transpose@V?$Matrix@N$0?0$0?0$0A@$0?0$0?0@Eigen@@@3@@Z DD imagerel $LN254+328
	DD	imagerel $LN254+338
	DD	imagerel $chain$3$?run@?$assign_impl@V?$Block@V?$Matrix@N$0?0$0?0$0A@$0?0$0?0@Eigen@@$0?0$0?0$0A@@Eigen@@V?$Transpose@V?$Matrix@N$0?0$0?0$0A@$0?0$0?0@Eigen@@@2@$0A@$0A@$0A@@internal@Eigen@@SAXAEAV?$Block@V?$Matrix@N$0?0$0?0$0A@$0?0$0?0@Eigen@@$0?0$0?0$0A@@3@AEBV?$Transpose@V?$Matrix@N$0?0$0?0$0A@$0?0$0?0@Eigen@@@3@@Z
pdata	ENDS
;	COMDAT pdata
pdata	SEGMENT
$pdata$?run@?$assign_impl@V?$Block@V?$Matrix@N$0?0$0?0$0A@$0?0$0?0@Eigen@@$0?0$0?0$0A@@Eigen@@V?$Matrix@N$0?0$0?0$0A@$0?0$0?0@2@$03$0A@$0A@@internal@Eigen@@SAXAEAV?$Block@V?$Matrix@N$0?0$0?0$0A@$0?0$0?0@Eigen@@$0?0$0?0$0A@@3@AEBV?$Matrix@N$0?0$0?0$0A@$0?0$0?0@3@@Z DD imagerel $LN746
	DD	imagerel $LN746+134
	DD	imagerel $unwind$?run@?$assign_impl@V?$Block@V?$Matrix@N$0?0$0?0$0A@$0?0$0?0@Eigen@@$0?0$0?0$0A@@Eigen@@V?$Matrix@N$0?0$0?0$0A@$0?0$0?0@2@$03$0A@$0A@@internal@Eigen@@SAXAEAV?$Block@V?$Matrix@N$0?0$0?0$0A@$0?0$0?0@Eigen@@$0?0$0?0$0A@@3@AEBV?$Matrix@N$0?0$0?0$0A@$0?0$0?0@3@@Z
pdata	ENDS
;	COMDAT pdata
pdata	SEGMENT
$pdata$1$?run@?$assign_impl@V?$Block@V?$Matrix@N$0?0$0?0$0A@$0?0$0?0@Eigen@@$0?0$0?0$0A@@Eigen@@V?$Matrix@N$0?0$0?0$0A@$0?0$0?0@2@$03$0A@$0A@@internal@Eigen@@SAXAEAV?$Block@V?$Matrix@N$0?0$0?0$0A@$0?0$0?0@Eigen@@$0?0$0?0$0A@@3@AEBV?$Matrix@N$0?0$0?0$0A@$0?0$0?0@3@@Z DD imagerel $LN746+134
	DD	imagerel $LN746+568
	DD	imagerel $chain$1$?run@?$assign_impl@V?$Block@V?$Matrix@N$0?0$0?0$0A@$0?0$0?0@Eigen@@$0?0$0?0$0A@@Eigen@@V?$Matrix@N$0?0$0?0$0A@$0?0$0?0@2@$03$0A@$0A@@internal@Eigen@@SAXAEAV?$Block@V?$Matrix@N$0?0$0?0$0A@$0?0$0?0@Eigen@@$0?0$0?0$0A@@3@AEBV?$Matrix@N$0?0$0?0$0A@$0?0$0?0@3@@Z
pdata	ENDS
;	COMDAT pdata
pdata	SEGMENT
$pdata$2$?run@?$assign_impl@V?$Block@V?$Matrix@N$0?0$0?0$0A@$0?0$0?0@Eigen@@$0?0$0?0$0A@@Eigen@@V?$Matrix@N$0?0$0?0$0A@$0?0$0?0@2@$03$0A@$0A@@internal@Eigen@@SAXAEAV?$Block@V?$Matrix@N$0?0$0?0$0A@$0?0$0?0@Eigen@@$0?0$0?0$0A@@3@AEBV?$Matrix@N$0?0$0?0$0A@$0?0$0?0@3@@Z DD imagerel $LN746+568
	DD	imagerel $LN746+593
	DD	imagerel $chain$2$?run@?$assign_impl@V?$Block@V?$Matrix@N$0?0$0?0$0A@$0?0$0?0@Eigen@@$0?0$0?0$0A@@Eigen@@V?$Matrix@N$0?0$0?0$0A@$0?0$0?0@2@$03$0A@$0A@@internal@Eigen@@SAXAEAV?$Block@V?$Matrix@N$0?0$0?0$0A@$0?0$0?0@Eigen@@$0?0$0?0$0A@@3@AEBV?$Matrix@N$0?0$0?0$0A@$0?0$0?0@3@@Z
pdata	ENDS
;	COMDAT pdata
pdata	SEGMENT
$pdata$?run@?$assign_impl@V?$Block@V?$Matrix@N$0?0$00$0A@$0?0$00@Eigen@@$0?0$0?0$0A@@Eigen@@V?$Matrix@N$0?0$00$0A@$0?0$00@2@$03$0A@$0A@@internal@Eigen@@SAXAEAV?$Block@V?$Matrix@N$0?0$00$0A@$0?0$00@Eigen@@$0?0$0?0$0A@@3@AEBV?$Matrix@N$0?0$00$0A@$0?0$00@3@@Z DD imagerel $LN746
	DD	imagerel $LN746+109
	DD	imagerel $unwind$?run@?$assign_impl@V?$Block@V?$Matrix@N$0?0$00$0A@$0?0$00@Eigen@@$0?0$0?0$0A@@Eigen@@V?$Matrix@N$0?0$00$0A@$0?0$00@2@$03$0A@$0A@@internal@Eigen@@SAXAEAV?$Block@V?$Matrix@N$0?0$00$0A@$0?0$00@Eigen@@$0?0$0?0$0A@@3@AEBV?$Matrix@N$0?0$00$0A@$0?0$00@3@@Z
pdata	ENDS
;	COMDAT pdata
pdata	SEGMENT
$pdata$0$?run@?$assign_impl@V?$Block@V?$Matrix@N$0?0$00$0A@$0?0$00@Eigen@@$0?0$0?0$0A@@Eigen@@V?$Matrix@N$0?0$00$0A@$0?0$00@2@$03$0A@$0A@@internal@Eigen@@SAXAEAV?$Block@V?$Matrix@N$0?0$00$0A@$0?0$00@Eigen@@$0?0$0?0$0A@@3@AEBV?$Matrix@N$0?0$00$0A@$0?0$00@3@@Z DD imagerel $LN746+109
	DD	imagerel $LN746+206
	DD	imagerel $chain$0$?run@?$assign_impl@V?$Block@V?$Matrix@N$0?0$00$0A@$0?0$00@Eigen@@$0?0$0?0$0A@@Eigen@@V?$Matrix@N$0?0$00$0A@$0?0$00@2@$03$0A@$0A@@internal@Eigen@@SAXAEAV?$Block@V?$Matrix@N$0?0$00$0A@$0?0$00@Eigen@@$0?0$0?0$0A@@3@AEBV?$Matrix@N$0?0$00$0A@$0?0$00@3@@Z
pdata	ENDS
;	COMDAT pdata
pdata	SEGMENT
$pdata$1$?run@?$assign_impl@V?$Block@V?$Matrix@N$0?0$00$0A@$0?0$00@Eigen@@$0?0$0?0$0A@@Eigen@@V?$Matrix@N$0?0$00$0A@$0?0$00@2@$03$0A@$0A@@internal@Eigen@@SAXAEAV?$Block@V?$Matrix@N$0?0$00$0A@$0?0$00@Eigen@@$0?0$0?0$0A@@3@AEBV?$Matrix@N$0?0$00$0A@$0?0$00@3@@Z DD imagerel $LN746+206
	DD	imagerel $LN746+315
	DD	imagerel $chain$1$?run@?$assign_impl@V?$Block@V?$Matrix@N$0?0$00$0A@$0?0$00@Eigen@@$0?0$0?0$0A@@Eigen@@V?$Matrix@N$0?0$00$0A@$0?0$00@2@$03$0A@$0A@@internal@Eigen@@SAXAEAV?$Block@V?$Matrix@N$0?0$00$0A@$0?0$00@Eigen@@$0?0$0?0$0A@@3@AEBV?$Matrix@N$0?0$00$0A@$0?0$00@3@@Z
pdata	ENDS
;	COMDAT pdata
pdata	SEGMENT
$pdata$?run@?$assign_selector@V?$SelfCwiseBinaryOp@U?$scalar_sum_op@N@internal@Eigen@@V?$Matrix@N$0?0$00$0A@$0?0$00@3@V?$Block@V?$Matrix@N$0?0$00$0A@$0?0$00@Eigen@@$0?0$0?0$0A@@3@@Eigen@@V?$Block@V?$Matrix@N$0?0$00$0A@$0?0$00@Eigen@@$0?0$0?0$0A@@2@$0A@$0A@@internal@Eigen@@SAAEAV?$SelfCwiseBinaryOp@U?$scalar_sum_op@N@internal@Eigen@@V?$Matrix@N$0?0$00$0A@$0?0$00@3@V?$Block@V?$Matrix@N$0?0$00$0A@$0?0$00@Eigen@@$0?0$0?0$0A@@3@@3@AEAV43@AEBV?$Block@V?$Matrix@N$0?0$00$0A@$0?0$00@Eigen@@$0?0$0?0$0A@@3@@Z DD imagerel $LN42
	DD	imagerel $LN42+87
	DD	imagerel $unwind$?run@?$assign_selector@V?$SelfCwiseBinaryOp@U?$scalar_sum_op@N@internal@Eigen@@V?$Matrix@N$0?0$00$0A@$0?0$00@3@V?$Block@V?$Matrix@N$0?0$00$0A@$0?0$00@Eigen@@$0?0$0?0$0A@@3@@Eigen@@V?$Block@V?$Matrix@N$0?0$00$0A@$0?0$00@Eigen@@$0?0$0?0$0A@@2@$0A@$0A@@internal@Eigen@@SAAEAV?$SelfCwiseBinaryOp@U?$scalar_sum_op@N@internal@Eigen@@V?$Matrix@N$0?0$00$0A@$0?0$00@3@V?$Block@V?$Matrix@N$0?0$00$0A@$0?0$00@Eigen@@$0?0$0?0$0A@@3@@3@AEAV43@AEBV?$Block@V?$Matrix@N$0?0$00$0A@$0?0$00@Eigen@@$0?0$0?0$0A@@3@@Z
pdata	ENDS
;	COMDAT pdata
pdata	SEGMENT
$pdata$?run@?$assign_selector@V?$Matrix@N$0?0$0?0$0A@$0?0$0?0@Eigen@@V?$Matrix@N$0?0$00$0A@$0?0$00@2@$0A@$0A@@internal@Eigen@@SAAEAV?$Matrix@N$0?0$0?0$0A@$0?0$0?0@3@AEAV43@AEBV?$Matrix@N$0?0$00$0A@$0?0$00@3@@Z DD imagerel $LN289
	DD	imagerel $LN289+289
	DD	imagerel $unwind$?run@?$assign_selector@V?$Matrix@N$0?0$0?0$0A@$0?0$0?0@Eigen@@V?$Matrix@N$0?0$00$0A@$0?0$00@2@$0A@$0A@@internal@Eigen@@SAAEAV?$Matrix@N$0?0$0?0$0A@$0?0$0?0@3@AEAV43@AEBV?$Matrix@N$0?0$00$0A@$0?0$00@3@@Z
pdata	ENDS
;	COMDAT pdata
pdata	SEGMENT
$pdata$?run@?$assign_selector@V?$Matrix@N$0?0$00$0A@$0?0$00@Eigen@@V?$GeneralProduct@V?$Matrix@N$0?0$0?0$0A@$0?0$0?0@Eigen@@V?$MatrixWrapper@$$CBV?$CwiseUnaryOp@U?$scalar_exp_op@N@internal@Eigen@@$$CBV?$ArrayWrapper@V?$Matrix@N$0?0$00$0A@$0?0$00@Eigen@@@3@@Eigen@@@2@$03@2@$0A@$0A@@internal@Eigen@@SAAEAV?$Matrix@N$0?0$00$0A@$0?0$00@3@AEAV43@AEBV?$GeneralProduct@V?$Matrix@N$0?0$0?0$0A@$0?0$0?0@Eigen@@V?$MatrixWrapper@$$CBV?$CwiseUnaryOp@U?$scalar_exp_op@N@internal@Eigen@@$$CBV?$ArrayWrapper@V?$Matrix@N$0?0$00$0A@$0?0$00@Eigen@@@3@@Eigen@@@2@$03@3@@Z DD imagerel $LN233
	DD	imagerel $LN233+195
	DD	imagerel $unwind$?run@?$assign_selector@V?$Matrix@N$0?0$00$0A@$0?0$00@Eigen@@V?$GeneralProduct@V?$Matrix@N$0?0$0?0$0A@$0?0$0?0@Eigen@@V?$MatrixWrapper@$$CBV?$CwiseUnaryOp@U?$scalar_exp_op@N@internal@Eigen@@$$CBV?$ArrayWrapper@V?$Matrix@N$0?0$00$0A@$0?0$00@Eigen@@@3@@Eigen@@@2@$03@2@$0A@$0A@@internal@Eigen@@SAAEAV?$Matrix@N$0?0$00$0A@$0?0$00@3@AEAV43@AEBV?$GeneralProduct@V?$Matrix@N$0?0$0?0$0A@$0?0$0?0@Eigen@@V?$MatrixWrapper@$$CBV?$CwiseUnaryOp@U?$scalar_exp_op@N@internal@Eigen@@$$CBV?$ArrayWrapper@V?$Matrix@N$0?0$00$0A@$0?0$00@Eigen@@@3@@Eigen@@@2@$03@3@@Z
pdata	ENDS
;	COMDAT pdata
pdata	SEGMENT
$pdata$?run@?$assign_selector@V?$Matrix@N$0?0$00$0A@$0?0$00@Eigen@@V?$GeneralProduct@V?$Matrix@N$0?0$0?0$0A@$0?0$0?0@Eigen@@V?$MatrixWrapper@$$CBV?$CwiseUnaryOp@U?$scalar_exp_op@N@internal@Eigen@@$$CBV?$ArrayWrapper@$$CBV?$Matrix@N$0?0$00$0A@$0?0$00@Eigen@@@3@@Eigen@@@2@$03@2@$0A@$0A@@internal@Eigen@@SAAEAV?$Matrix@N$0?0$00$0A@$0?0$00@3@AEAV43@AEBV?$GeneralProduct@V?$Matrix@N$0?0$0?0$0A@$0?0$0?0@Eigen@@V?$MatrixWrapper@$$CBV?$CwiseUnaryOp@U?$scalar_exp_op@N@internal@Eigen@@$$CBV?$ArrayWrapper@$$CBV?$Matrix@N$0?0$00$0A@$0?0$00@Eigen@@@3@@Eigen@@@2@$03@3@@Z DD imagerel $LN233
	DD	imagerel $LN233+195
	DD	imagerel $unwind$?run@?$assign_selector@V?$Matrix@N$0?0$00$0A@$0?0$00@Eigen@@V?$GeneralProduct@V?$Matrix@N$0?0$0?0$0A@$0?0$0?0@Eigen@@V?$MatrixWrapper@$$CBV?$CwiseUnaryOp@U?$scalar_exp_op@N@internal@Eigen@@$$CBV?$ArrayWrapper@$$CBV?$Matrix@N$0?0$00$0A@$0?0$00@Eigen@@@3@@Eigen@@@2@$03@2@$0A@$0A@@internal@Eigen@@SAAEAV?$Matrix@N$0?0$00$0A@$0?0$00@3@AEAV43@AEBV?$GeneralProduct@V?$Matrix@N$0?0$0?0$0A@$0?0$0?0@Eigen@@V?$MatrixWrapper@$$CBV?$CwiseUnaryOp@U?$scalar_exp_op@N@internal@Eigen@@$$CBV?$ArrayWrapper@$$CBV?$Matrix@N$0?0$00$0A@$0?0$00@Eigen@@@3@@Eigen@@@2@$03@3@@Z
pdata	ENDS
;	COMDAT pdata
pdata	SEGMENT
$pdata$??$lazyAssign@V?$Transpose@V?$Matrix@N$0?0$0?0$0A@$0?0$0?0@Eigen@@@Eigen@@@?$DenseBase@V?$Block@V?$Matrix@N$0?0$0?0$0A@$0?0$0?0@Eigen@@$0?0$0?0$0A@@Eigen@@@Eigen@@QEAAAEAV?$Block@V?$Matrix@N$0?0$0?0$0A@$0?0$0?0@Eigen@@$0?0$0?0$0A@@1@AEBV?$DenseBase@V?$Transpose@V?$Matrix@N$0?0$0?0$0A@$0?0$0?0@Eigen@@@Eigen@@@1@@Z DD imagerel $LN97
	DD	imagerel $LN97+132
	DD	imagerel $unwind$??$lazyAssign@V?$Transpose@V?$Matrix@N$0?0$0?0$0A@$0?0$0?0@Eigen@@@Eigen@@@?$DenseBase@V?$Block@V?$Matrix@N$0?0$0?0$0A@$0?0$0?0@Eigen@@$0?0$0?0$0A@@Eigen@@@Eigen@@QEAAAEAV?$Block@V?$Matrix@N$0?0$0?0$0A@$0?0$0?0@Eigen@@$0?0$0?0$0A@@1@AEBV?$DenseBase@V?$Transpose@V?$Matrix@N$0?0$0?0$0A@$0?0$0?0@Eigen@@@Eigen@@@1@@Z
pdata	ENDS
;	COMDAT pdata
pdata	SEGMENT
$pdata$??$lazyAssign@V?$Matrix@N$0?0$0?0$0A@$0?0$0?0@Eigen@@@?$DenseBase@V?$Block@V?$Matrix@N$0?0$0?0$0A@$0?0$0?0@Eigen@@$0?0$0?0$0A@@Eigen@@@Eigen@@QEAAAEAV?$Block@V?$Matrix@N$0?0$0?0$0A@$0?0$0?0@Eigen@@$0?0$0?0$0A@@1@AEBV?$DenseBase@V?$Matrix@N$0?0$0?0$0A@$0?0$0?0@Eigen@@@1@@Z DD imagerel $LN46
	DD	imagerel $LN46+87
	DD	imagerel $unwind$??$lazyAssign@V?$Matrix@N$0?0$0?0$0A@$0?0$0?0@Eigen@@@?$DenseBase@V?$Block@V?$Matrix@N$0?0$0?0$0A@$0?0$0?0@Eigen@@$0?0$0?0$0A@@Eigen@@@Eigen@@QEAAAEAV?$Block@V?$Matrix@N$0?0$0?0$0A@$0?0$0?0@Eigen@@$0?0$0?0$0A@@1@AEBV?$DenseBase@V?$Matrix@N$0?0$0?0$0A@$0?0$0?0@Eigen@@@1@@Z
pdata	ENDS
;	COMDAT pdata
pdata	SEGMENT
$pdata$??$lazyAssign@V?$Matrix@N$0?0$00$0A@$0?0$00@Eigen@@@?$DenseBase@V?$Block@V?$Matrix@N$0?0$00$0A@$0?0$00@Eigen@@$0?0$0?0$0A@@Eigen@@@Eigen@@QEAAAEAV?$Block@V?$Matrix@N$0?0$00$0A@$0?0$00@Eigen@@$0?0$0?0$0A@@1@AEBV?$DenseBase@V?$Matrix@N$0?0$00$0A@$0?0$00@Eigen@@@1@@Z DD imagerel $LN46
	DD	imagerel $LN46+84
	DD	imagerel $unwind$??$lazyAssign@V?$Matrix@N$0?0$00$0A@$0?0$00@Eigen@@@?$DenseBase@V?$Block@V?$Matrix@N$0?0$00$0A@$0?0$00@Eigen@@$0?0$0?0$0A@@Eigen@@@Eigen@@QEAAAEAV?$Block@V?$Matrix@N$0?0$00$0A@$0?0$00@Eigen@@$0?0$0?0$0A@@1@AEBV?$DenseBase@V?$Matrix@N$0?0$00$0A@$0?0$00@Eigen@@@1@@Z
pdata	ENDS
;	COMDAT pdata
pdata	SEGMENT
$pdata$??$?4V?$Block@V?$Matrix@N$0?0$00$0A@$0?0$00@Eigen@@$0?0$0?0$0A@@Eigen@@@?$MatrixBase@V?$SelfCwiseBinaryOp@U?$scalar_sum_op@N@internal@Eigen@@V?$Matrix@N$0?0$00$0A@$0?0$00@3@V?$Block@V?$Matrix@N$0?0$00$0A@$0?0$00@Eigen@@$0?0$0?0$0A@@3@@Eigen@@@Eigen@@QEAAAEAV?$SelfCwiseBinaryOp@U?$scalar_sum_op@N@internal@Eigen@@V?$Matrix@N$0?0$00$0A@$0?0$00@3@V?$Block@V?$Matrix@N$0?0$00$0A@$0?0$00@Eigen@@$0?0$0?0$0A@@3@@1@AEBV?$DenseBase@V?$Block@V?$Matrix@N$0?0$00$0A@$0?0$00@Eigen@@$0?0$0?0$0A@@Eigen@@@1@@Z DD imagerel $LN48
	DD	imagerel $LN48+87
	DD	imagerel $unwind$??$?4V?$Block@V?$Matrix@N$0?0$00$0A@$0?0$00@Eigen@@$0?0$0?0$0A@@Eigen@@@?$MatrixBase@V?$SelfCwiseBinaryOp@U?$scalar_sum_op@N@internal@Eigen@@V?$Matrix@N$0?0$00$0A@$0?0$00@3@V?$Block@V?$Matrix@N$0?0$00$0A@$0?0$00@Eigen@@$0?0$0?0$0A@@3@@Eigen@@@Eigen@@QEAAAEAV?$SelfCwiseBinaryOp@U?$scalar_sum_op@N@internal@Eigen@@V?$Matrix@N$0?0$00$0A@$0?0$00@3@V?$Block@V?$Matrix@N$0?0$00$0A@$0?0$00@Eigen@@$0?0$0?0$0A@@3@@1@AEBV?$DenseBase@V?$Block@V?$Matrix@N$0?0$00$0A@$0?0$00@Eigen@@$0?0$0?0$0A@@Eigen@@@1@@Z
pdata	ENDS
;	COMDAT pdata
pdata	SEGMENT
$pdata$??$_set_noalias@V?$Matrix@N$0?0$00$0A@$0?0$00@Eigen@@@?$PlainObjectBase@V?$Matrix@N$0?0$0?0$0A@$0?0$0?0@Eigen@@@Eigen@@IEAAAEAV?$Matrix@N$0?0$0?0$0A@$0?0$0?0@1@AEBV?$DenseBase@V?$Matrix@N$0?0$00$0A@$0?0$00@Eigen@@@1@@Z DD imagerel $LN296
	DD	imagerel $LN296+289
	DD	imagerel $unwind$??$_set_noalias@V?$Matrix@N$0?0$00$0A@$0?0$00@Eigen@@@?$PlainObjectBase@V?$Matrix@N$0?0$0?0$0A@$0?0$0?0@Eigen@@@Eigen@@IEAAAEAV?$Matrix@N$0?0$0?0$0A@$0?0$0?0@1@AEBV?$DenseBase@V?$Matrix@N$0?0$00$0A@$0?0$00@Eigen@@@1@@Z
pdata	ENDS
;	COMDAT pdata
pdata	SEGMENT
$pdata$??$_set@V?$CwiseUnaryOp@U?$scalar_opposite_op@N@internal@Eigen@@$$CBV?$ReturnByValue@U?$solve_retval_base@V?$PartialPivLU@V?$Matrix@N$0?0$0?0$0A@$0?0$0?0@Eigen@@@Eigen@@V?$Matrix@N$0?0$00$0A@$0?0$00@2@@internal@Eigen@@@3@@Eigen@@@?$PlainObjectBase@V?$Matrix@N$0?0$00$0A@$0?0$00@Eigen@@@Eigen@@IEAAAEAV?$Matrix@N$0?0$00$0A@$0?0$00@1@AEBV?$DenseBase@V?$CwiseUnaryOp@U?$scalar_opposite_op@N@internal@Eigen@@$$CBV?$ReturnByValue@U?$solve_retval_base@V?$PartialPivLU@V?$Matrix@N$0?0$0?0$0A@$0?0$0?0@Eigen@@@Eigen@@V?$Matrix@N$0?0$00$0A@$0?0$00@2@@internal@Eigen@@@3@@Eigen@@@1@@Z DD imagerel $LN379
	DD	imagerel $LN379+419
	DD	imagerel $unwind$??$_set@V?$CwiseUnaryOp@U?$scalar_opposite_op@N@internal@Eigen@@$$CBV?$ReturnByValue@U?$solve_retval_base@V?$PartialPivLU@V?$Matrix@N$0?0$0?0$0A@$0?0$0?0@Eigen@@@Eigen@@V?$Matrix@N$0?0$00$0A@$0?0$00@2@@internal@Eigen@@@3@@Eigen@@@?$PlainObjectBase@V?$Matrix@N$0?0$00$0A@$0?0$00@Eigen@@@Eigen@@IEAAAEAV?$Matrix@N$0?0$00$0A@$0?0$00@1@AEBV?$DenseBase@V?$CwiseUnaryOp@U?$scalar_opposite_op@N@internal@Eigen@@$$CBV?$ReturnByValue@U?$solve_retval_base@V?$PartialPivLU@V?$Matrix@N$0?0$0?0$0A@$0?0$0?0@Eigen@@@Eigen@@V?$Matrix@N$0?0$00$0A@$0?0$00@2@@internal@Eigen@@@3@@Eigen@@@1@@Z
pdata	ENDS
;	COMDAT pdata
pdata	SEGMENT
$pdata$??$_set_noalias@V?$GeneralProduct@V?$Matrix@N$0?0$0?0$0A@$0?0$0?0@Eigen@@V?$MatrixWrapper@$$CBV?$CwiseUnaryOp@U?$scalar_exp_op@N@internal@Eigen@@$$CBV?$ArrayWrapper@V?$Matrix@N$0?0$00$0A@$0?0$00@Eigen@@@3@@Eigen@@@2@$03@Eigen@@@?$PlainObjectBase@V?$Matrix@N$0?0$00$0A@$0?0$00@Eigen@@@Eigen@@IEAAAEAV?$Matrix@N$0?0$00$0A@$0?0$00@1@AEBV?$DenseBase@V?$GeneralProduct@V?$Matrix@N$0?0$0?0$0A@$0?0$0?0@Eigen@@V?$MatrixWrapper@$$CBV?$CwiseUnaryOp@U?$scalar_exp_op@N@internal@Eigen@@$$CBV?$ArrayWrapper@V?$Matrix@N$0?0$00$0A@$0?0$00@Eigen@@@3@@Eigen@@@2@$03@Eigen@@@1@@Z DD imagerel $LN240
	DD	imagerel $LN240+195
	DD	imagerel $unwind$??$_set_noalias@V?$GeneralProduct@V?$Matrix@N$0?0$0?0$0A@$0?0$0?0@Eigen@@V?$MatrixWrapper@$$CBV?$CwiseUnaryOp@U?$scalar_exp_op@N@internal@Eigen@@$$CBV?$ArrayWrapper@V?$Matrix@N$0?0$00$0A@$0?0$00@Eigen@@@3@@Eigen@@@2@$03@Eigen@@@?$PlainObjectBase@V?$Matrix@N$0?0$00$0A@$0?0$00@Eigen@@@Eigen@@IEAAAEAV?$Matrix@N$0?0$00$0A@$0?0$00@1@AEBV?$DenseBase@V?$GeneralProduct@V?$Matrix@N$0?0$0?0$0A@$0?0$0?0@Eigen@@V?$MatrixWrapper@$$CBV?$CwiseUnaryOp@U?$scalar_exp_op@N@internal@Eigen@@$$CBV?$ArrayWrapper@V?$Matrix@N$0?0$00$0A@$0?0$00@Eigen@@@3@@Eigen@@@2@$03@Eigen@@@1@@Z
pdata	ENDS
;	COMDAT pdata
pdata	SEGMENT
$pdata$??$_set_noalias@V?$GeneralProduct@V?$Matrix@N$0?0$0?0$0A@$0?0$0?0@Eigen@@V?$MatrixWrapper@$$CBV?$CwiseUnaryOp@U?$scalar_exp_op@N@internal@Eigen@@$$CBV?$ArrayWrapper@$$CBV?$Matrix@N$0?0$00$0A@$0?0$00@Eigen@@@3@@Eigen@@@2@$03@Eigen@@@?$PlainObjectBase@V?$Matrix@N$0?0$00$0A@$0?0$00@Eigen@@@Eigen@@IEAAAEAV?$Matrix@N$0?0$00$0A@$0?0$00@1@AEBV?$DenseBase@V?$GeneralProduct@V?$Matrix@N$0?0$0?0$0A@$0?0$0?0@Eigen@@V?$MatrixWrapper@$$CBV?$CwiseUnaryOp@U?$scalar_exp_op@N@internal@Eigen@@$$CBV?$ArrayWrapper@$$CBV?$Matrix@N$0?0$00$0A@$0?0$00@Eigen@@@3@@Eigen@@@2@$03@Eigen@@@1@@Z DD imagerel $LN240
	DD	imagerel $LN240+195
	DD	imagerel $unwind$??$_set_noalias@V?$GeneralProduct@V?$Matrix@N$0?0$0?0$0A@$0?0$0?0@Eigen@@V?$MatrixWrapper@$$CBV?$CwiseUnaryOp@U?$scalar_exp_op@N@internal@Eigen@@$$CBV?$ArrayWrapper@$$CBV?$Matrix@N$0?0$00$0A@$0?0$00@Eigen@@@3@@Eigen@@@2@$03@Eigen@@@?$PlainObjectBase@V?$Matrix@N$0?0$00$0A@$0?0$00@Eigen@@@Eigen@@IEAAAEAV?$Matrix@N$0?0$00$0A@$0?0$00@1@AEBV?$DenseBase@V?$GeneralProduct@V?$Matrix@N$0?0$0?0$0A@$0?0$0?0@Eigen@@V?$MatrixWrapper@$$CBV?$CwiseUnaryOp@U?$scalar_exp_op@N@internal@Eigen@@$$CBV?$ArrayWrapper@$$CBV?$Matrix@N$0?0$00$0A@$0?0$00@Eigen@@@3@@Eigen@@@2@$03@Eigen@@@1@@Z
pdata	ENDS
;	COMDAT pdata
pdata	SEGMENT
$pdata$??0?$ProductBase@V?$GeneralProduct@V?$Matrix@N$0?0$0?0$0A@$0?0$0?0@Eigen@@V?$MatrixWrapper@$$CBV?$CwiseUnaryOp@U?$scalar_exp_op@N@internal@Eigen@@$$CBV?$ArrayWrapper@V?$Matrix@N$0?0$00$0A@$0?0$00@Eigen@@@3@@Eigen@@@2@$03@Eigen@@V?$Matrix@N$0?0$0?0$0A@$0?0$0?0@2@V?$MatrixWrapper@$$CBV?$CwiseUnaryOp@U?$scalar_exp_op@N@internal@Eigen@@$$CBV?$ArrayWrapper@V?$Matrix@N$0?0$00$0A@$0?0$00@Eigen@@@3@@Eigen@@@2@@Eigen@@QEAA@AEBV?$Matrix@N$0?0$0?0$0A@$0?0$0?0@1@AEBV?$MatrixWrapper@$$CBV?$CwiseUnaryOp@U?$scalar_exp_op@N@internal@Eigen@@$$CBV?$ArrayWrapper@V?$Matrix@N$0?0$00$0A@$0?0$00@Eigen@@@3@@Eigen@@@1@@Z DD imagerel $LN29
	DD	imagerel $LN29+93
	DD	imagerel $unwind$??0?$ProductBase@V?$GeneralProduct@V?$Matrix@N$0?0$0?0$0A@$0?0$0?0@Eigen@@V?$MatrixWrapper@$$CBV?$CwiseUnaryOp@U?$scalar_exp_op@N@internal@Eigen@@$$CBV?$ArrayWrapper@V?$Matrix@N$0?0$00$0A@$0?0$00@Eigen@@@3@@Eigen@@@2@$03@Eigen@@V?$Matrix@N$0?0$0?0$0A@$0?0$0?0@2@V?$MatrixWrapper@$$CBV?$CwiseUnaryOp@U?$scalar_exp_op@N@internal@Eigen@@$$CBV?$ArrayWrapper@V?$Matrix@N$0?0$00$0A@$0?0$00@Eigen@@@3@@Eigen@@@2@@Eigen@@QEAA@AEBV?$Matrix@N$0?0$0?0$0A@$0?0$0?0@1@AEBV?$MatrixWrapper@$$CBV?$CwiseUnaryOp@U?$scalar_exp_op@N@internal@Eigen@@$$CBV?$ArrayWrapper@V?$Matrix@N$0?0$00$0A@$0?0$00@Eigen@@@3@@Eigen@@@1@@Z
pdata	ENDS
;	COMDAT pdata
pdata	SEGMENT
$pdata$?run@?$assign_selector@V?$Block@V?$Matrix@N$0?0$0?0$0A@$0?0$0?0@Eigen@@$0?0$0?0$0A@@Eigen@@V?$Transpose@V?$Matrix@N$0?0$0?0$0A@$0?0$0?0@Eigen@@@2@$0A@$0A@@internal@Eigen@@SAAEAV?$Block@V?$Matrix@N$0?0$0?0$0A@$0?0$0?0@Eigen@@$0?0$0?0$0A@@3@AEAV43@AEBV?$Transpose@V?$Matrix@N$0?0$0?0$0A@$0?0$0?0@Eigen@@@3@@Z DD imagerel $LN101
	DD	imagerel $LN101+132
	DD	imagerel $unwind$?run@?$assign_selector@V?$Block@V?$Matrix@N$0?0$0?0$0A@$0?0$0?0@Eigen@@$0?0$0?0$0A@@Eigen@@V?$Transpose@V?$Matrix@N$0?0$0?0$0A@$0?0$0?0@Eigen@@@2@$0A@$0A@@internal@Eigen@@SAAEAV?$Block@V?$Matrix@N$0?0$0?0$0A@$0?0$0?0@Eigen@@$0?0$0?0$0A@@3@AEAV43@AEBV?$Transpose@V?$Matrix@N$0?0$0?0$0A@$0?0$0?0@Eigen@@@3@@Z
pdata	ENDS
;	COMDAT pdata
pdata	SEGMENT
$pdata$?run@?$assign_selector@V?$Block@V?$Matrix@N$0?0$0?0$0A@$0?0$0?0@Eigen@@$0?0$0?0$0A@@Eigen@@V?$Matrix@N$0?0$0?0$0A@$0?0$0?0@2@$0A@$0A@@internal@Eigen@@SAAEAV?$Block@V?$Matrix@N$0?0$0?0$0A@$0?0$0?0@Eigen@@$0?0$0?0$0A@@3@AEAV43@AEBV?$Matrix@N$0?0$0?0$0A@$0?0$0?0@3@@Z DD imagerel $LN50
	DD	imagerel $LN50+87
	DD	imagerel $unwind$?run@?$assign_selector@V?$Block@V?$Matrix@N$0?0$0?0$0A@$0?0$0?0@Eigen@@$0?0$0?0$0A@@Eigen@@V?$Matrix@N$0?0$0?0$0A@$0?0$0?0@2@$0A@$0A@@internal@Eigen@@SAAEAV?$Block@V?$Matrix@N$0?0$0?0$0A@$0?0$0?0@Eigen@@$0?0$0?0$0A@@3@AEAV43@AEBV?$Matrix@N$0?0$0?0$0A@$0?0$0?0@3@@Z
pdata	ENDS
;	COMDAT pdata
pdata	SEGMENT
$pdata$?run@?$assign_selector@V?$Block@V?$Matrix@N$0?0$00$0A@$0?0$00@Eigen@@$0?0$0?0$0A@@Eigen@@V?$Matrix@N$0?0$00$0A@$0?0$00@2@$0A@$0A@@internal@Eigen@@SAAEAV?$Block@V?$Matrix@N$0?0$00$0A@$0?0$00@Eigen@@$0?0$0?0$0A@@3@AEAV43@AEBV?$Matrix@N$0?0$00$0A@$0?0$00@3@@Z DD imagerel $LN50
	DD	imagerel $LN50+84
	DD	imagerel $unwind$?run@?$assign_selector@V?$Block@V?$Matrix@N$0?0$00$0A@$0?0$00@Eigen@@$0?0$0?0$0A@@Eigen@@V?$Matrix@N$0?0$00$0A@$0?0$00@2@$0A@$0A@@internal@Eigen@@SAAEAV?$Block@V?$Matrix@N$0?0$00$0A@$0?0$00@Eigen@@$0?0$0?0$0A@@3@AEAV43@AEBV?$Matrix@N$0?0$00$0A@$0?0$00@3@@Z
pdata	ENDS
;	COMDAT pdata
pdata	SEGMENT
$pdata$??4?$SelfCwiseBinaryOp@U?$scalar_sum_op@N@internal@Eigen@@V?$Matrix@N$0?0$00$0A@$0?0$00@3@V?$Block@V?$Matrix@N$0?0$00$0A@$0?0$00@Eigen@@$0?0$0?0$0A@@3@@Eigen@@QEAAAEAV01@AEBV?$Block@V?$Matrix@N$0?0$00$0A@$0?0$00@Eigen@@$0?0$0?0$0A@@1@@Z DD imagerel $LN52
	DD	imagerel $LN52+143
	DD	imagerel $unwind$??4?$SelfCwiseBinaryOp@U?$scalar_sum_op@N@internal@Eigen@@V?$Matrix@N$0?0$00$0A@$0?0$00@3@V?$Block@V?$Matrix@N$0?0$00$0A@$0?0$00@Eigen@@$0?0$0?0$0A@@3@@Eigen@@QEAAAEAV01@AEBV?$Block@V?$Matrix@N$0?0$00$0A@$0?0$00@Eigen@@$0?0$0?0$0A@@1@@Z
pdata	ENDS
;	COMDAT pdata
pdata	SEGMENT
$pdata$??0?$GeneralProduct@V?$Matrix@N$0?0$0?0$0A@$0?0$0?0@Eigen@@V?$MatrixWrapper@$$CBV?$CwiseUnaryOp@U?$scalar_exp_op@N@internal@Eigen@@$$CBV?$ArrayWrapper@V?$Matrix@N$0?0$00$0A@$0?0$00@Eigen@@@3@@Eigen@@@2@$03@Eigen@@QEAA@AEBV?$Matrix@N$0?0$0?0$0A@$0?0$0?0@1@AEBV?$MatrixWrapper@$$CBV?$CwiseUnaryOp@U?$scalar_exp_op@N@internal@Eigen@@$$CBV?$ArrayWrapper@V?$Matrix@N$0?0$00$0A@$0?0$00@Eigen@@@3@@Eigen@@@1@@Z DD imagerel $LN31
	DD	imagerel $LN31+93
	DD	imagerel $unwind$??0?$GeneralProduct@V?$Matrix@N$0?0$0?0$0A@$0?0$0?0@Eigen@@V?$MatrixWrapper@$$CBV?$CwiseUnaryOp@U?$scalar_exp_op@N@internal@Eigen@@$$CBV?$ArrayWrapper@V?$Matrix@N$0?0$00$0A@$0?0$00@Eigen@@@3@@Eigen@@@2@$03@Eigen@@QEAA@AEBV?$Matrix@N$0?0$0?0$0A@$0?0$0?0@1@AEBV?$MatrixWrapper@$$CBV?$CwiseUnaryOp@U?$scalar_exp_op@N@internal@Eigen@@$$CBV?$ArrayWrapper@V?$Matrix@N$0?0$00$0A@$0?0$00@Eigen@@@3@@Eigen@@@1@@Z
pdata	ENDS
;	COMDAT pdata
pdata	SEGMENT
$pdata$??$?0V?$Matrix@N$0?0$00$0A@$0?0$00@Eigen@@@?$Matrix@N$0?0$0?0$0A@$0?0$0?0@Eigen@@QEAA@AEBV?$MatrixBase@V?$Matrix@N$0?0$00$0A@$0?0$00@Eigen@@@1@@Z DD imagerel $LN354
	DD	imagerel $LN354+393
	DD	imagerel $unwind$??$?0V?$Matrix@N$0?0$00$0A@$0?0$00@Eigen@@@?$Matrix@N$0?0$0?0$0A@$0?0$0?0@Eigen@@QEAA@AEBV?$MatrixBase@V?$Matrix@N$0?0$00$0A@$0?0$00@Eigen@@@1@@Z
pdata	ENDS
;	COMDAT pdata
pdata	SEGMENT
$pdata$??$?4V?$Transpose@V?$Matrix@N$0?0$0?0$0A@$0?0$0?0@Eigen@@@Eigen@@@?$MatrixBase@V?$Block@V?$Matrix@N$0?0$0?0$0A@$0?0$0?0@Eigen@@$0?0$0?0$0A@@Eigen@@@Eigen@@QEAAAEAV?$Block@V?$Matrix@N$0?0$0?0$0A@$0?0$0?0@Eigen@@$0?0$0?0$0A@@1@AEBV?$DenseBase@V?$Transpose@V?$Matrix@N$0?0$0?0$0A@$0?0$0?0@Eigen@@@Eigen@@@1@@Z DD imagerel $LN107
	DD	imagerel $LN107+132
	DD	imagerel $unwind$??$?4V?$Transpose@V?$Matrix@N$0?0$0?0$0A@$0?0$0?0@Eigen@@@Eigen@@@?$MatrixBase@V?$Block@V?$Matrix@N$0?0$0?0$0A@$0?0$0?0@Eigen@@$0?0$0?0$0A@@Eigen@@@Eigen@@QEAAAEAV?$Block@V?$Matrix@N$0?0$0?0$0A@$0?0$0?0@Eigen@@$0?0$0?0$0A@@1@AEBV?$DenseBase@V?$Transpose@V?$Matrix@N$0?0$0?0$0A@$0?0$0?0@Eigen@@@Eigen@@@1@@Z
pdata	ENDS
;	COMDAT pdata
pdata	SEGMENT
$pdata$??$?4V?$Matrix@N$0?0$0?0$0A@$0?0$0?0@Eigen@@@?$MatrixBase@V?$Block@V?$Matrix@N$0?0$0?0$0A@$0?0$0?0@Eigen@@$0?0$0?0$0A@@Eigen@@@Eigen@@QEAAAEAV?$Block@V?$Matrix@N$0?0$0?0$0A@$0?0$0?0@Eigen@@$0?0$0?0$0A@@1@AEBV?$DenseBase@V?$Matrix@N$0?0$0?0$0A@$0?0$0?0@Eigen@@@1@@Z DD imagerel $LN56
	DD	imagerel $LN56+87
	DD	imagerel $unwind$??$?4V?$Matrix@N$0?0$0?0$0A@$0?0$0?0@Eigen@@@?$MatrixBase@V?$Block@V?$Matrix@N$0?0$0?0$0A@$0?0$0?0@Eigen@@$0?0$0?0$0A@@Eigen@@@Eigen@@QEAAAEAV?$Block@V?$Matrix@N$0?0$0?0$0A@$0?0$0?0@Eigen@@$0?0$0?0$0A@@1@AEBV?$DenseBase@V?$Matrix@N$0?0$0?0$0A@$0?0$0?0@Eigen@@@1@@Z
pdata	ENDS
;	COMDAT pdata
pdata	SEGMENT
$pdata$??$?4V?$Matrix@N$0?0$00$0A@$0?0$00@Eigen@@@?$MatrixBase@V?$Block@V?$Matrix@N$0?0$00$0A@$0?0$00@Eigen@@$0?0$0?0$0A@@Eigen@@@Eigen@@QEAAAEAV?$Block@V?$Matrix@N$0?0$00$0A@$0?0$00@Eigen@@$0?0$0?0$0A@@1@AEBV?$DenseBase@V?$Matrix@N$0?0$00$0A@$0?0$00@Eigen@@@1@@Z DD imagerel $LN56
	DD	imagerel $LN56+84
	DD	imagerel $unwind$??$?4V?$Matrix@N$0?0$00$0A@$0?0$00@Eigen@@@?$MatrixBase@V?$Block@V?$Matrix@N$0?0$00$0A@$0?0$00@Eigen@@$0?0$0?0$0A@@Eigen@@@Eigen@@QEAAAEAV?$Block@V?$Matrix@N$0?0$00$0A@$0?0$00@Eigen@@$0?0$0?0$0A@@1@AEBV?$DenseBase@V?$Matrix@N$0?0$00$0A@$0?0$00@Eigen@@@1@@Z
pdata	ENDS
;	COMDAT pdata
pdata	SEGMENT
$pdata$??$?YV?$Block@V?$Matrix@N$0?0$00$0A@$0?0$00@Eigen@@$0?0$0?0$0A@@Eigen@@@?$MatrixBase@V?$Matrix@N$0?0$00$0A@$0?0$00@Eigen@@@Eigen@@QEAAAEAV?$Matrix@N$0?0$00$0A@$0?0$00@1@AEBV?$MatrixBase@V?$Block@V?$Matrix@N$0?0$00$0A@$0?0$00@Eigen@@$0?0$0?0$0A@@Eigen@@@1@@Z DD imagerel $LN62
	DD	imagerel $LN62+157
	DD	imagerel $unwind$??$?YV?$Block@V?$Matrix@N$0?0$00$0A@$0?0$00@Eigen@@$0?0$0?0$0A@@Eigen@@@?$MatrixBase@V?$Matrix@N$0?0$00$0A@$0?0$00@Eigen@@@Eigen@@QEAAAEAV?$Matrix@N$0?0$00$0A@$0?0$00@1@AEBV?$MatrixBase@V?$Block@V?$Matrix@N$0?0$00$0A@$0?0$00@Eigen@@$0?0$0?0$0A@@Eigen@@@1@@Z
pdata	ENDS
;	COMDAT pdata
pdata	SEGMENT
$pdata$??$?4V?$CwiseUnaryOp@U?$scalar_opposite_op@N@internal@Eigen@@$$CBV?$ReturnByValue@U?$solve_retval_base@V?$PartialPivLU@V?$Matrix@N$0?0$0?0$0A@$0?0$0?0@Eigen@@@Eigen@@V?$Matrix@N$0?0$00$0A@$0?0$00@2@@internal@Eigen@@@3@@Eigen@@@?$Matrix@N$0?0$00$0A@$0?0$00@Eigen@@QEAAAEAV01@AEBV?$MatrixBase@V?$CwiseUnaryOp@U?$scalar_opposite_op@N@internal@Eigen@@$$CBV?$ReturnByValue@U?$solve_retval_base@V?$PartialPivLU@V?$Matrix@N$0?0$0?0$0A@$0?0$0?0@Eigen@@@Eigen@@V?$Matrix@N$0?0$00$0A@$0?0$00@2@@internal@Eigen@@@3@@Eigen@@@1@@Z DD imagerel $LN382
	DD	imagerel $LN382+419
	DD	imagerel $unwind$??$?4V?$CwiseUnaryOp@U?$scalar_opposite_op@N@internal@Eigen@@$$CBV?$ReturnByValue@U?$solve_retval_base@V?$PartialPivLU@V?$Matrix@N$0?0$0?0$0A@$0?0$0?0@Eigen@@@Eigen@@V?$Matrix@N$0?0$00$0A@$0?0$00@2@@internal@Eigen@@@3@@Eigen@@@?$Matrix@N$0?0$00$0A@$0?0$00@Eigen@@QEAAAEAV01@AEBV?$MatrixBase@V?$CwiseUnaryOp@U?$scalar_opposite_op@N@internal@Eigen@@$$CBV?$ReturnByValue@U?$solve_retval_base@V?$PartialPivLU@V?$Matrix@N$0?0$0?0$0A@$0?0$0?0@Eigen@@@Eigen@@V?$Matrix@N$0?0$00$0A@$0?0$00@2@@internal@Eigen@@@3@@Eigen@@@1@@Z
pdata	ENDS
;	COMDAT pdata
pdata	SEGMENT
$pdata$??$?0V?$GeneralProduct@V?$Matrix@N$0?0$0?0$0A@$0?0$0?0@Eigen@@V?$MatrixWrapper@$$CBV?$CwiseUnaryOp@U?$scalar_exp_op@N@internal@Eigen@@$$CBV?$ArrayWrapper@V?$Matrix@N$0?0$00$0A@$0?0$00@Eigen@@@3@@Eigen@@@2@$03@Eigen@@@?$Matrix@N$0?0$00$0A@$0?0$00@Eigen@@QEAA@AEBV?$MatrixBase@V?$GeneralProduct@V?$Matrix@N$0?0$0?0$0A@$0?0$0?0@Eigen@@V?$MatrixWrapper@$$CBV?$CwiseUnaryOp@U?$scalar_exp_op@N@internal@Eigen@@$$CBV?$ArrayWrapper@V?$Matrix@N$0?0$00$0A@$0?0$00@Eigen@@@3@@Eigen@@@2@$03@Eigen@@@1@@Z DD imagerel $LN318
	DD	imagerel $LN318+289
	DD	imagerel $unwind$??$?0V?$GeneralProduct@V?$Matrix@N$0?0$0?0$0A@$0?0$0?0@Eigen@@V?$MatrixWrapper@$$CBV?$CwiseUnaryOp@U?$scalar_exp_op@N@internal@Eigen@@$$CBV?$ArrayWrapper@V?$Matrix@N$0?0$00$0A@$0?0$00@Eigen@@@3@@Eigen@@@2@$03@Eigen@@@?$Matrix@N$0?0$00$0A@$0?0$00@Eigen@@QEAA@AEBV?$MatrixBase@V?$GeneralProduct@V?$Matrix@N$0?0$0?0$0A@$0?0$0?0@Eigen@@V?$MatrixWrapper@$$CBV?$CwiseUnaryOp@U?$scalar_exp_op@N@internal@Eigen@@$$CBV?$ArrayWrapper@V?$Matrix@N$0?0$00$0A@$0?0$00@Eigen@@@3@@Eigen@@@2@$03@Eigen@@@1@@Z
pdata	ENDS
;	COMDAT pdata
pdata	SEGMENT
$pdata$??$?DV?$MatrixWrapper@$$CBV?$CwiseUnaryOp@U?$scalar_exp_op@N@internal@Eigen@@$$CBV?$ArrayWrapper@V?$Matrix@N$0?0$00$0A@$0?0$00@Eigen@@@3@@Eigen@@@Eigen@@@?$MatrixBase@V?$Matrix@N$0?0$0?0$0A@$0?0$0?0@Eigen@@@Eigen@@QEBA?BV?$GeneralProduct@V?$Matrix@N$0?0$0?0$0A@$0?0$0?0@Eigen@@V?$MatrixWrapper@$$CBV?$CwiseUnaryOp@U?$scalar_exp_op@N@internal@Eigen@@$$CBV?$ArrayWrapper@V?$Matrix@N$0?0$00$0A@$0?0$00@Eigen@@@3@@Eigen@@@2@$03@1@AEBV?$MatrixBase@V?$MatrixWrapper@$$CBV?$CwiseUnaryOp@U?$scalar_exp_op@N@internal@Eigen@@$$CBV?$ArrayWrapper@V?$Matrix@N$0?0$00$0A@$0?0$00@Eigen@@@3@@Eigen@@@Eigen@@@1@@Z DD imagerel $LN37
	DD	imagerel $LN37+90
	DD	imagerel $unwind$??$?DV?$MatrixWrapper@$$CBV?$CwiseUnaryOp@U?$scalar_exp_op@N@internal@Eigen@@$$CBV?$ArrayWrapper@V?$Matrix@N$0?0$00$0A@$0?0$00@Eigen@@@3@@Eigen@@@Eigen@@@?$MatrixBase@V?$Matrix@N$0?0$0?0$0A@$0?0$0?0@Eigen@@@Eigen@@QEBA?BV?$GeneralProduct@V?$Matrix@N$0?0$0?0$0A@$0?0$0?0@Eigen@@V?$MatrixWrapper@$$CBV?$CwiseUnaryOp@U?$scalar_exp_op@N@internal@Eigen@@$$CBV?$ArrayWrapper@V?$Matrix@N$0?0$00$0A@$0?0$00@Eigen@@@3@@Eigen@@@2@$03@1@AEBV?$MatrixBase@V?$MatrixWrapper@$$CBV?$CwiseUnaryOp@U?$scalar_exp_op@N@internal@Eigen@@$$CBV?$ArrayWrapper@V?$Matrix@N$0?0$00$0A@$0?0$00@Eigen@@@3@@Eigen@@@Eigen@@@1@@Z
pdata	ENDS
;	COMDAT pdata
pdata	SEGMENT
$pdata$??$write_itx@N$0?0$00$0A@$0?0$00@IGORdata@@YA_NAEBV?$Matrix@N$0?0$00$0A@$0?0$00@Eigen@@V?$basic_string@DU?$char_traits@D@std@@V?$allocator@D@2@@std@@1HW4OpenCondition@0@@Z DD imagerel ??$write_itx@N$0?0$00$0A@$0?0$00@IGORdata@@YA_NAEBV?$Matrix@N$0?0$00$0A@$0?0$00@Eigen@@V?$basic_string@DU?$char_traits@D@std@@V?$allocator@D@2@@std@@1HW4OpenCondition@0@@Z
	DD	imagerel ??$write_itx@N$0?0$00$0A@$0?0$00@IGORdata@@YA_NAEBV?$Matrix@N$0?0$00$0A@$0?0$00@Eigen@@V?$basic_string@DU?$char_traits@D@std@@V?$allocator@D@2@@std@@1HW4OpenCondition@0@@Z+517
	DD	imagerel $unwind$??$write_itx@N$0?0$00$0A@$0?0$00@IGORdata@@YA_NAEBV?$Matrix@N$0?0$00$0A@$0?0$00@Eigen@@V?$basic_string@DU?$char_traits@D@std@@V?$allocator@D@2@@std@@1HW4OpenCondition@0@@Z
pdata	ENDS
;	COMDAT pdata
pdata	SEGMENT
$pdata$??$?0V?$GeneralProduct@V?$Matrix@N$0?0$0?0$0A@$0?0$0?0@Eigen@@V?$MatrixWrapper@$$CBV?$CwiseUnaryOp@U?$scalar_exp_op@N@internal@Eigen@@$$CBV?$ArrayWrapper@$$CBV?$Matrix@N$0?0$00$0A@$0?0$00@Eigen@@@3@@Eigen@@@2@$03@Eigen@@@?$Matrix@N$0?0$00$0A@$0?0$00@Eigen@@QEAA@AEBV?$MatrixBase@V?$GeneralProduct@V?$Matrix@N$0?0$0?0$0A@$0?0$0?0@Eigen@@V?$MatrixWrapper@$$CBV?$CwiseUnaryOp@U?$scalar_exp_op@N@internal@Eigen@@$$CBV?$ArrayWrapper@$$CBV?$Matrix@N$0?0$00$0A@$0?0$00@Eigen@@@3@@Eigen@@@2@$03@Eigen@@@1@@Z DD imagerel $LN318
	DD	imagerel $LN318+289
	DD	imagerel $unwind$??$?0V?$GeneralProduct@V?$Matrix@N$0?0$0?0$0A@$0?0$0?0@Eigen@@V?$MatrixWrapper@$$CBV?$CwiseUnaryOp@U?$scalar_exp_op@N@internal@Eigen@@$$CBV?$ArrayWrapper@$$CBV?$Matrix@N$0?0$00$0A@$0?0$00@Eigen@@@3@@Eigen@@@2@$03@Eigen@@@?$Matrix@N$0?0$00$0A@$0?0$00@Eigen@@QEAA@AEBV?$MatrixBase@V?$GeneralProduct@V?$Matrix@N$0?0$0?0$0A@$0?0$0?0@Eigen@@V?$MatrixWrapper@$$CBV?$CwiseUnaryOp@U?$scalar_exp_op@N@internal@Eigen@@$$CBV?$ArrayWrapper@$$CBV?$Matrix@N$0?0$00$0A@$0?0$00@Eigen@@@3@@Eigen@@@2@$03@Eigen@@@1@@Z
pdata	ENDS
;	COMDAT pdata
pdata	SEGMENT
$pdata$??0?$MapBase@V?$Block@V?$Matrix@N$0?0$0?0$0A@$0?0$0?0@Eigen@@$0?0$0?0$0A@@Eigen@@$0A@@Eigen@@QEAA@PEAN_J1@Z DD imagerel $LN16
	DD	imagerel $LN16+70
	DD	imagerel $unwind$??0?$MapBase@V?$Block@V?$Matrix@N$0?0$0?0$0A@$0?0$0?0@Eigen@@$0?0$0?0$0A@@Eigen@@$0A@@Eigen@@QEAA@PEAN_J1@Z
pdata	ENDS
;	COMDAT pdata
pdata	SEGMENT
$pdata$??0?$MapBase@V?$Block@V?$Matrix@N$0?0$00$0A@$0?0$00@Eigen@@$0?0$0?0$0A@@Eigen@@$0A@@Eigen@@QEAA@PEAN_J1@Z DD imagerel $LN16
	DD	imagerel $LN16+69
	DD	imagerel $unwind$??0?$MapBase@V?$Block@V?$Matrix@N$0?0$00$0A@$0?0$00@Eigen@@$0?0$0?0$0A@@Eigen@@$0A@@Eigen@@QEAA@PEAN_J1@Z
pdata	ENDS
;	COMDAT pdata
pdata	SEGMENT
$pdata$??0?$MapBase@V?$Block@V?$Matrix@N$0?0$0?0$0A@$0?0$0?0@Eigen@@$0?0$0?0$0A@@Eigen@@$00@Eigen@@QEAA@PEAN_J1@Z DD imagerel $LN18
	DD	imagerel $LN18+70
	DD	imagerel $unwind$??0?$MapBase@V?$Block@V?$Matrix@N$0?0$0?0$0A@$0?0$0?0@Eigen@@$0?0$0?0$0A@@Eigen@@$00@Eigen@@QEAA@PEAN_J1@Z
pdata	ENDS
;	COMDAT pdata
pdata	SEGMENT
$pdata$??0?$MapBase@V?$Block@V?$Matrix@N$0?0$00$0A@$0?0$00@Eigen@@$0?0$0?0$0A@@Eigen@@$00@Eigen@@QEAA@PEAN_J1@Z DD imagerel $LN18
	DD	imagerel $LN18+69
	DD	imagerel $unwind$??0?$MapBase@V?$Block@V?$Matrix@N$0?0$00$0A@$0?0$00@Eigen@@$0?0$0?0$0A@@Eigen@@$00@Eigen@@QEAA@PEAN_J1@Z
pdata	ENDS
;	COMDAT pdata
pdata	SEGMENT
$pdata$??0?$BlockImpl_dense@V?$Matrix@N$0?0$0?0$0A@$0?0$0?0@Eigen@@$0?0$0?0$0A@$00@internal@Eigen@@QEAA@AEAV?$Matrix@N$0?0$0?0$0A@$0?0$0?0@2@_J111@Z DD imagerel $LN80
	DD	imagerel $LN80+119
	DD	imagerel $unwind$??0?$BlockImpl_dense@V?$Matrix@N$0?0$0?0$0A@$0?0$0?0@Eigen@@$0?0$0?0$0A@$00@internal@Eigen@@QEAA@AEAV?$Matrix@N$0?0$0?0$0A@$0?0$0?0@2@_J111@Z
pdata	ENDS
;	COMDAT pdata
pdata	SEGMENT
$pdata$??0?$BlockImpl_dense@V?$Matrix@N$0?0$00$0A@$0?0$00@Eigen@@$0?0$0?0$0A@$00@internal@Eigen@@QEAA@AEAV?$Matrix@N$0?0$00$0A@$0?0$00@2@_J111@Z DD imagerel $LN80
	DD	imagerel $LN80+105
	DD	imagerel $unwind$??0?$BlockImpl_dense@V?$Matrix@N$0?0$00$0A@$0?0$00@Eigen@@$0?0$0?0$0A@$00@internal@Eigen@@QEAA@AEAV?$Matrix@N$0?0$00$0A@$0?0$00@2@_J111@Z
pdata	ENDS
;	COMDAT pdata
pdata	SEGMENT
$pdata$??0?$BlockImpl@V?$Matrix@N$0?0$0?0$0A@$0?0$0?0@Eigen@@$0?0$0?0$0A@UDense@2@@Eigen@@QEAA@AEAV?$Matrix@N$0?0$0?0$0A@$0?0$0?0@1@_J111@Z DD imagerel $LN82
	DD	imagerel $LN82+119
	DD	imagerel $unwind$??0?$BlockImpl@V?$Matrix@N$0?0$0?0$0A@$0?0$0?0@Eigen@@$0?0$0?0$0A@UDense@2@@Eigen@@QEAA@AEAV?$Matrix@N$0?0$0?0$0A@$0?0$0?0@1@_J111@Z
pdata	ENDS
;	COMDAT pdata
pdata	SEGMENT
$pdata$??0?$BlockImpl@V?$Matrix@N$0?0$00$0A@$0?0$00@Eigen@@$0?0$0?0$0A@UDense@2@@Eigen@@QEAA@AEAV?$Matrix@N$0?0$00$0A@$0?0$00@1@_J111@Z DD imagerel $LN82
	DD	imagerel $LN82+105
	DD	imagerel $unwind$??0?$BlockImpl@V?$Matrix@N$0?0$00$0A@$0?0$00@Eigen@@$0?0$0?0$0A@UDense@2@@Eigen@@QEAA@AEAV?$Matrix@N$0?0$00$0A@$0?0$00@1@_J111@Z
pdata	ENDS
;	COMDAT pdata
pdata	SEGMENT
$pdata$??0?$Block@V?$Matrix@N$0?0$0?0$0A@$0?0$0?0@Eigen@@$0?0$0?0$0A@@Eigen@@QEAA@AEAV?$Matrix@N$0?0$0?0$0A@$0?0$0?0@1@_J111@Z DD imagerel $LN96
	DD	imagerel $LN96+226
	DD	imagerel $unwind$??0?$Block@V?$Matrix@N$0?0$0?0$0A@$0?0$0?0@Eigen@@$0?0$0?0$0A@@Eigen@@QEAA@AEAV?$Matrix@N$0?0$0?0$0A@$0?0$0?0@1@_J111@Z
pdata	ENDS
;	COMDAT pdata
pdata	SEGMENT
$pdata$??0?$Block@V?$Matrix@N$0?0$00$0A@$0?0$00@Eigen@@$0?0$0?0$0A@@Eigen@@QEAA@AEAV?$Matrix@N$0?0$00$0A@$0?0$00@1@_J111@Z DD imagerel $LN98
	DD	imagerel $LN98+176
	DD	imagerel $unwind$??0?$Block@V?$Matrix@N$0?0$00$0A@$0?0$00@Eigen@@$0?0$0?0$0A@@Eigen@@QEAA@AEAV?$Matrix@N$0?0$00$0A@$0?0$00@1@_J111@Z
pdata	ENDS
;	COMDAT pdata
pdata	SEGMENT
$pdata$??R?$DenseCoeffsBase@V?$Matrix@N$0?0$0?0$0A@$0?0$0?0@Eigen@@$00@Eigen@@QEAAAEAN_J@Z DD imagerel $LN30
	DD	imagerel $LN30+79
	DD	imagerel $unwind$??R?$DenseCoeffsBase@V?$Matrix@N$0?0$0?0$0A@$0?0$0?0@Eigen@@$00@Eigen@@QEAAAEAN_J@Z
pdata	ENDS
;	COMDAT pdata
pdata	SEGMENT
$pdata$?block@?$DenseBase@V?$Matrix@N$0?0$0?0$0A@$0?0$0?0@Eigen@@@Eigen@@QEAA?AV?$Block@V?$Matrix@N$0?0$0?0$0A@$0?0$0?0@Eigen@@$0?0$0?0$0A@@2@_J000@Z DD imagerel $LN6
	DD	imagerel $LN6+49
	DD	imagerel $unwind$?block@?$DenseBase@V?$Matrix@N$0?0$0?0$0A@$0?0$0?0@Eigen@@@Eigen@@QEAA?AV?$Block@V?$Matrix@N$0?0$0?0$0A@$0?0$0?0@Eigen@@$0?0$0?0$0A@@2@_J000@Z
pdata	ENDS
;	COMDAT pdata
pdata	SEGMENT
$pdata$??R?$DenseCoeffsBase@V?$Matrix@N$0?0$00$0A@$0?0$00@Eigen@@$0A@@Eigen@@QEBAAEBN_J@Z DD imagerel $LN30
	DD	imagerel $LN30+71
	DD	imagerel $unwind$??R?$DenseCoeffsBase@V?$Matrix@N$0?0$00$0A@$0?0$00@Eigen@@$0A@@Eigen@@QEBAAEBN_J@Z
pdata	ENDS
;	COMDAT pdata
pdata	SEGMENT
$pdata$??A?$DenseCoeffsBase@V?$Matrix@N$0?0$00$0A@$0?0$00@Eigen@@$0A@@Eigen@@QEBAAEBN_J@Z DD imagerel $LN30
	DD	imagerel $LN30+71
	DD	imagerel $unwind$??A?$DenseCoeffsBase@V?$Matrix@N$0?0$00$0A@$0?0$00@Eigen@@$0A@@Eigen@@QEBAAEBN_J@Z
pdata	ENDS
;	COMDAT pdata
pdata	SEGMENT
$pdata$?block@?$DenseBase@V?$Matrix@N$0?0$00$0A@$0?0$00@Eigen@@@Eigen@@QEAA?AV?$Block@V?$Matrix@N$0?0$00$0A@$0?0$00@Eigen@@$0?0$0?0$0A@@2@_J000@Z DD imagerel $LN6
	DD	imagerel $LN6+39
	DD	imagerel $unwind$?block@?$DenseBase@V?$Matrix@N$0?0$00$0A@$0?0$00@Eigen@@@Eigen@@QEAA?AV?$Block@V?$Matrix@N$0?0$00$0A@$0?0$00@Eigen@@$0?0$0?0$0A@@2@_J000@Z
pdata	ENDS
;	COMDAT pdata
pdata	SEGMENT
$pdata$?getAdv_ij@Tikhonov2D@@AEBAN_K0@Z DD imagerel $LN118
	DD	imagerel $LN118+367
	DD	imagerel $unwind$?getAdv_ij@Tikhonov2D@@AEBAN_K0@Z
pdata	ENDS
;	COMDAT pdata
pdata	SEGMENT
$pdata$?getA_ij@Tikhonov2D@@AEBAN_K0@Z DD imagerel $LN174
	DD	imagerel $LN174+449
	DD	imagerel $unwind$?getA_ij@Tikhonov2D@@AEBAN_K0@Z
pdata	ENDS
;	COMDAT pdata
pdata	SEGMENT
$pdata$?setJandH@Tikhonov2D@@AEAA_NNN@Z DD imagerel $LN5953
	DD	imagerel $LN5953+7143
	DD	imagerel $unwind$?setJandH@Tikhonov2D@@AEAA_NNN@Z
pdata	ENDS
;	COMDAT pdata
pdata	SEGMENT
$pdata$?updateFandV@Tikhonov2D@@AEAA_NNNNN@Z DD imagerel $LN1132
	DD	imagerel $LN1132+1545
	DD	imagerel $unwind$?updateFandV@Tikhonov2D@@AEAA_NNNNN@Z
pdata	ENDS
;	COMDAT pdata
pdata	SEGMENT
$pdata$?updateV@Tikhonov2D@@AEAA_NNN@Z DD imagerel $LN1533
	DD	imagerel $LN1533+1634
	DD	imagerel $unwind$?updateV@Tikhonov2D@@AEAA_NNN@Z
pdata	ENDS
;	COMDAT pdata
pdata	SEGMENT
$pdata$?updateF@Tikhonov2D@@AEAA_NNN@Z DD imagerel $LN1533
	DD	imagerel $LN1533+1631
	DD	imagerel $unwind$?updateF@Tikhonov2D@@AEAA_NNN@Z
pdata	ENDS
;	COMDAT pdata
pdata	SEGMENT
$pdata$?open@IGORdata@@YA_NAEAV?$basic_ofstream@DU?$char_traits@D@std@@@std@@V?$basic_string@DU?$char_traits@D@std@@V?$allocator@D@2@@3@W4OpenCondition@1@@Z DD imagerel ?open@IGORdata@@YA_NAEAV?$basic_ofstream@DU?$char_traits@D@std@@@std@@V?$basic_string@DU?$char_traits@D@std@@V?$allocator@D@2@@3@W4OpenCondition@1@@Z
	DD	imagerel ?open@IGORdata@@YA_NAEAV?$basic_ofstream@DU?$char_traits@D@std@@@std@@V?$basic_string@DU?$char_traits@D@std@@V?$allocator@D@2@@3@W4OpenCondition@1@@Z+571
	DD	imagerel $unwind$?open@IGORdata@@YA_NAEAV?$basic_ofstream@DU?$char_traits@D@std@@@std@@V?$basic_string@DU?$char_traits@D@std@@V?$allocator@D@2@@3@W4OpenCondition@1@@Z
pdata	ENDS
;	COMDAT pdata
pdata	SEGMENT
$pdata$?getAf@Tikhonov2D@@QEBA?AV?$Matrix@N$0?0$0?0$0A@$0?0$0?0@Eigen@@XZ DD imagerel $LN739
	DD	imagerel $LN739+729
	DD	imagerel $unwind$?getAf@Tikhonov2D@@QEBA?AV?$Matrix@N$0?0$0?0$0A@$0?0$0?0@Eigen@@XZ
pdata	ENDS
;	COMDAT pdata
pdata	SEGMENT
$pdata$?solve@Tikhonov2D@@QEAA_NNNNN@Z DD imagerel $LN961
	DD	imagerel $LN961+1445
	DD	imagerel $unwind$?solve@Tikhonov2D@@QEAA_NNNNN@Z
pdata	ENDS
;	COMDAT pdata
pdata	SEGMENT
$pdata$?set_Lv_2ndDeriv@Tikhonov2D@@QEAAXXZ DD imagerel $LN600
	DD	imagerel $LN600+127
	DD	imagerel $unwind$?set_Lv_2ndDeriv@Tikhonov2D@@QEAAXXZ
pdata	ENDS
;	COMDAT pdata
pdata	SEGMENT
$pdata$2$?set_Lv_2ndDeriv@Tikhonov2D@@QEAAXXZ DD imagerel $LN600+127
	DD	imagerel $LN600+931
	DD	imagerel $chain$2$?set_Lv_2ndDeriv@Tikhonov2D@@QEAAXXZ
pdata	ENDS
;	COMDAT pdata
pdata	SEGMENT
$pdata$3$?set_Lv_2ndDeriv@Tikhonov2D@@QEAAXXZ DD imagerel $LN600+931
	DD	imagerel $LN600+943
	DD	imagerel $chain$3$?set_Lv_2ndDeriv@Tikhonov2D@@QEAAXXZ
pdata	ENDS
;	COMDAT pdata
pdata	SEGMENT
$pdata$4$?set_Lv_2ndDeriv@Tikhonov2D@@QEAAXXZ DD imagerel $LN600+943
	DD	imagerel $LN600+961
	DD	imagerel $chain$4$?set_Lv_2ndDeriv@Tikhonov2D@@QEAAXXZ
pdata	ENDS
;	COMDAT pdata
pdata	SEGMENT
$pdata$?set_Lf_2ndDeriv@Tikhonov2D@@QEAAXXZ DD imagerel $LN600
	DD	imagerel $LN600+127
	DD	imagerel $unwind$?set_Lf_2ndDeriv@Tikhonov2D@@QEAAXXZ
pdata	ENDS
;	COMDAT pdata
pdata	SEGMENT
$pdata$2$?set_Lf_2ndDeriv@Tikhonov2D@@QEAAXXZ DD imagerel $LN600+127
	DD	imagerel $LN600+931
	DD	imagerel $chain$2$?set_Lf_2ndDeriv@Tikhonov2D@@QEAAXXZ
pdata	ENDS
;	COMDAT pdata
pdata	SEGMENT
$pdata$3$?set_Lf_2ndDeriv@Tikhonov2D@@QEAAXXZ DD imagerel $LN600+931
	DD	imagerel $LN600+943
	DD	imagerel $chain$3$?set_Lf_2ndDeriv@Tikhonov2D@@QEAAXXZ
pdata	ENDS
;	COMDAT pdata
pdata	SEGMENT
$pdata$4$?set_Lf_2ndDeriv@Tikhonov2D@@QEAAXXZ DD imagerel $LN600+943
	DD	imagerel $LN600+961
	DD	imagerel $chain$4$?set_Lf_2ndDeriv@Tikhonov2D@@QEAAXXZ
pdata	ENDS
;	COMDAT pdata
pdata	SEGMENT
$pdata$??1Tikhonov2D@@QEAA@XZ DD imagerel $LN400
	DD	imagerel $LN400+286
	DD	imagerel $unwind$??1Tikhonov2D@@QEAA@XZ
pdata	ENDS
;	COMDAT pdata
pdata	SEGMENT
$pdata$??0Tikhonov2D@@QEAA@_K0NNV?$Matrix@N$0?0$00$0A@$0?0$00@Eigen@@1@Z DD imagerel $LN990
	DD	imagerel $LN990+1806
	DD	imagerel $unwind$??0Tikhonov2D@@QEAA@_K0NNV?$Matrix@N$0?0$00$0A@$0?0$00@Eigen@@1@Z
pdata	ENDS
;	COMDAT xdata
xdata	SEGMENT
$ip2state$??0Tikhonov2D@@QEAA@_K0NNV?$Matrix@N$0?0$00$0A@$0?0$00@Eigen@@1@Z DD imagerel ??0Tikhonov2D@@QEAA@_K0NNV?$Matrix@N$0?0$00$0A@$0?0$00@Eigen@@1@Z
	DD	0ffffffffH
	DD	imagerel ??0Tikhonov2D@@QEAA@_K0NNV?$Matrix@N$0?0$00$0A@$0?0$00@Eigen@@1@Z+82
	DD	01H
	DD	imagerel ??0Tikhonov2D@@QEAA@_K0NNV?$Matrix@N$0?0$00$0A@$0?0$00@Eigen@@1@Z+194
	DD	02H
	DD	imagerel ??0Tikhonov2D@@QEAA@_K0NNV?$Matrix@N$0?0$00$0A@$0?0$00@Eigen@@1@Z+419
	DD	03H
	DD	imagerel ??0Tikhonov2D@@QEAA@_K0NNV?$Matrix@N$0?0$00$0A@$0?0$00@Eigen@@1@Z+503
	DD	04H
	DD	imagerel ??0Tikhonov2D@@QEAA@_K0NNV?$Matrix@N$0?0$00$0A@$0?0$00@Eigen@@1@Z+723
	DD	05H
	DD	imagerel ??0Tikhonov2D@@QEAA@_K0NNV?$Matrix@N$0?0$00$0A@$0?0$00@Eigen@@1@Z+733
	DD	06H
	DD	imagerel ??0Tikhonov2D@@QEAA@_K0NNV?$Matrix@N$0?0$00$0A@$0?0$00@Eigen@@1@Z+745
	DD	07H
	DD	imagerel ??0Tikhonov2D@@QEAA@_K0NNV?$Matrix@N$0?0$00$0A@$0?0$00@Eigen@@1@Z+757
	DD	08H
	DD	imagerel ??0Tikhonov2D@@QEAA@_K0NNV?$Matrix@N$0?0$00$0A@$0?0$00@Eigen@@1@Z+778
	DD	09H
	DD	imagerel ??0Tikhonov2D@@QEAA@_K0NNV?$Matrix@N$0?0$00$0A@$0?0$00@Eigen@@1@Z+799
	DD	0aH
	DD	imagerel ??0Tikhonov2D@@QEAA@_K0NNV?$Matrix@N$0?0$00$0A@$0?0$00@Eigen@@1@Z+820
	DD	0bH
	DD	imagerel ??0Tikhonov2D@@QEAA@_K0NNV?$Matrix@N$0?0$00$0A@$0?0$00@Eigen@@1@Z+841
	DD	0cH
	DD	imagerel ??0Tikhonov2D@@QEAA@_K0NNV?$Matrix@N$0?0$00$0A@$0?0$00@Eigen@@1@Z+855
	DD	0dH
	DD	imagerel ??0Tikhonov2D@@QEAA@_K0NNV?$Matrix@N$0?0$00$0A@$0?0$00@Eigen@@1@Z+869
	DD	0eH
	DD	imagerel ??0Tikhonov2D@@QEAA@_K0NNV?$Matrix@N$0?0$00$0A@$0?0$00@Eigen@@1@Z+883
	DD	0fH
	DD	imagerel ??0Tikhonov2D@@QEAA@_K0NNV?$Matrix@N$0?0$00$0A@$0?0$00@Eigen@@1@Z+897
	DD	010H
	DD	imagerel ??0Tikhonov2D@@QEAA@_K0NNV?$Matrix@N$0?0$00$0A@$0?0$00@Eigen@@1@Z+911
	DD	011H
	DD	imagerel ??0Tikhonov2D@@QEAA@_K0NNV?$Matrix@N$0?0$00$0A@$0?0$00@Eigen@@1@Z+932
	DD	012H
	DD	imagerel ??0Tikhonov2D@@QEAA@_K0NNV?$Matrix@N$0?0$00$0A@$0?0$00@Eigen@@1@Z+953
	DD	013H
	DD	imagerel ??0Tikhonov2D@@QEAA@_K0NNV?$Matrix@N$0?0$00$0A@$0?0$00@Eigen@@1@Z+974
	DD	014H
	DD	imagerel ??0Tikhonov2D@@QEAA@_K0NNV?$Matrix@N$0?0$00$0A@$0?0$00@Eigen@@1@Z+995
	DD	015H
	DD	imagerel ??0Tikhonov2D@@QEAA@_K0NNV?$Matrix@N$0?0$00$0A@$0?0$00@Eigen@@1@Z+1009
	DD	016H
	DD	imagerel ??0Tikhonov2D@@QEAA@_K0NNV?$Matrix@N$0?0$00$0A@$0?0$00@Eigen@@1@Z+1023
	DD	017H
	DD	imagerel ??0Tikhonov2D@@QEAA@_K0NNV?$Matrix@N$0?0$00$0A@$0?0$00@Eigen@@1@Z+1037
	DD	018H
	DD	imagerel ??0Tikhonov2D@@QEAA@_K0NNV?$Matrix@N$0?0$00$0A@$0?0$00@Eigen@@1@Z+1051
	DD	019H
	DD	imagerel ??0Tikhonov2D@@QEAA@_K0NNV?$Matrix@N$0?0$00$0A@$0?0$00@Eigen@@1@Z+1741
	DD	00H
	DD	imagerel ??0Tikhonov2D@@QEAA@_K0NNV?$Matrix@N$0?0$00$0A@$0?0$00@Eigen@@1@Z+1751
	DD	0ffffffffH
xdata	ENDS
;	COMDAT xdata
xdata	SEGMENT
$stateUnwindMap$??0Tikhonov2D@@QEAA@_K0NNV?$Matrix@N$0?0$00$0A@$0?0$00@Eigen@@1@Z DD 0ffffffffH
	DD	imagerel ?dtor$0@?0???0Tikhonov2D@@QEAA@_K0NNV?$Matrix@N$0?0$00$0A@$0?0$00@Eigen@@1@Z@4HA
	DD	00H
	DD	imagerel ?dtor$1@?0???0Tikhonov2D@@QEAA@_K0NNV?$Matrix@N$0?0$00$0A@$0?0$00@Eigen@@1@Z@4HA
	DD	01H
	DD	imagerel ?dtor$24@?0???0Tikhonov2D@@QEAA@_K0NNV?$Matrix@N$0?0$00$0A@$0?0$00@Eigen@@1@Z@4HA
	DD	01H
	DD	imagerel ?dtor$2@?0???0Tikhonov2D@@QEAA@_K0NNV?$Matrix@N$0?0$00$0A@$0?0$00@Eigen@@1@Z@4HA
	DD	03H
	DD	imagerel ?dtor$26@?0???0Tikhonov2D@@QEAA@_K0NNV?$Matrix@N$0?0$00$0A@$0?0$00@Eigen@@1@Z@4HA
	DD	03H
	DD	imagerel ?dtor$3@?0???0Tikhonov2D@@QEAA@_K0NNV?$Matrix@N$0?0$00$0A@$0?0$00@Eigen@@1@Z@4HA
	DD	05H
	DD	imagerel ?dtor$4@?0???0Tikhonov2D@@QEAA@_K0NNV?$Matrix@N$0?0$00$0A@$0?0$00@Eigen@@1@Z@4HA
	DD	06H
	DD	imagerel ?dtor$5@?0???0Tikhonov2D@@QEAA@_K0NNV?$Matrix@N$0?0$00$0A@$0?0$00@Eigen@@1@Z@4HA
	DD	07H
	DD	imagerel ?dtor$6@?0???0Tikhonov2D@@QEAA@_K0NNV?$Matrix@N$0?0$00$0A@$0?0$00@Eigen@@1@Z@4HA
	DD	08H
	DD	imagerel ?dtor$7@?0???0Tikhonov2D@@QEAA@_K0NNV?$Matrix@N$0?0$00$0A@$0?0$00@Eigen@@1@Z@4HA
	DD	09H
	DD	imagerel ?dtor$8@?0???0Tikhonov2D@@QEAA@_K0NNV?$Matrix@N$0?0$00$0A@$0?0$00@Eigen@@1@Z@4HA
	DD	0aH
	DD	imagerel ?dtor$9@?0???0Tikhonov2D@@QEAA@_K0NNV?$Matrix@N$0?0$00$0A@$0?0$00@Eigen@@1@Z@4HA
	DD	0bH
	DD	imagerel ?dtor$10@?0???0Tikhonov2D@@QEAA@_K0NNV?$Matrix@N$0?0$00$0A@$0?0$00@Eigen@@1@Z@4HA
	DD	0cH
	DD	imagerel ?dtor$11@?0???0Tikhonov2D@@QEAA@_K0NNV?$Matrix@N$0?0$00$0A@$0?0$00@Eigen@@1@Z@4HA
	DD	0dH
	DD	imagerel ?dtor$12@?0???0Tikhonov2D@@QEAA@_K0NNV?$Matrix@N$0?0$00$0A@$0?0$00@Eigen@@1@Z@4HA
	DD	0eH
	DD	imagerel ?dtor$13@?0???0Tikhonov2D@@QEAA@_K0NNV?$Matrix@N$0?0$00$0A@$0?0$00@Eigen@@1@Z@4HA
	DD	0fH
	DD	imagerel ?dtor$14@?0???0Tikhonov2D@@QEAA@_K0NNV?$Matrix@N$0?0$00$0A@$0?0$00@Eigen@@1@Z@4HA
	DD	010H
	DD	imagerel ?dtor$15@?0???0Tikhonov2D@@QEAA@_K0NNV?$Matrix@N$0?0$00$0A@$0?0$00@Eigen@@1@Z@4HA
	DD	011H
	DD	imagerel ?dtor$16@?0???0Tikhonov2D@@QEAA@_K0NNV?$Matrix@N$0?0$00$0A@$0?0$00@Eigen@@1@Z@4HA
	DD	012H
	DD	imagerel ?dtor$17@?0???0Tikhonov2D@@QEAA@_K0NNV?$Matrix@N$0?0$00$0A@$0?0$00@Eigen@@1@Z@4HA
	DD	013H
	DD	imagerel ?dtor$18@?0???0Tikhonov2D@@QEAA@_K0NNV?$Matrix@N$0?0$00$0A@$0?0$00@Eigen@@1@Z@4HA
	DD	014H
	DD	imagerel ?dtor$19@?0???0Tikhonov2D@@QEAA@_K0NNV?$Matrix@N$0?0$00$0A@$0?0$00@Eigen@@1@Z@4HA
	DD	015H
	DD	imagerel ?dtor$20@?0???0Tikhonov2D@@QEAA@_K0NNV?$Matrix@N$0?0$00$0A@$0?0$00@Eigen@@1@Z@4HA
	DD	016H
	DD	imagerel ?dtor$21@?0???0Tikhonov2D@@QEAA@_K0NNV?$Matrix@N$0?0$00$0A@$0?0$00@Eigen@@1@Z@4HA
	DD	017H
	DD	imagerel ?dtor$22@?0???0Tikhonov2D@@QEAA@_K0NNV?$Matrix@N$0?0$00$0A@$0?0$00@Eigen@@1@Z@4HA
	DD	018H
	DD	imagerel ?dtor$23@?0???0Tikhonov2D@@QEAA@_K0NNV?$Matrix@N$0?0$00$0A@$0?0$00@Eigen@@1@Z@4HA
xdata	ENDS
;	COMDAT CONST
CONST	SEGMENT
$cppxdata$??0Tikhonov2D@@QEAA@_K0NNV?$Matrix@N$0?0$00$0A@$0?0$00@Eigen@@1@Z DD 019930522H
	DD	01aH
	DD	imagerel $stateUnwindMap$??0Tikhonov2D@@QEAA@_K0NNV?$Matrix@N$0?0$00$0A@$0?0$00@Eigen@@1@Z
	DD	00H
	DD	00H
	DD	01cH
	DD	imagerel $ip2state$??0Tikhonov2D@@QEAA@_K0NNV?$Matrix@N$0?0$00$0A@$0?0$00@Eigen@@1@Z
	DD	040H
	DD	00H
	DD	01H
CONST	ENDS
;	COMDAT xdata
xdata	SEGMENT
$unwind$??0Tikhonov2D@@QEAA@_K0NNV?$Matrix@N$0?0$00$0A@$0?0$00@Eigen@@1@Z DD 0c3319H
	DD	0156424H
	DD	0145420H
	DD	013341cH
	DD	0f00cb210H
	DD	0d008e00aH
	DD	07004c006H
	DD	imagerel __GSHandlerCheck_EH
	DD	imagerel $cppxdata$??0Tikhonov2D@@QEAA@_K0NNV?$Matrix@N$0?0$00$0A@$0?0$00@Eigen@@1@Z
	DD	05aH
xdata	ENDS
;	COMDAT xdata
xdata	SEGMENT
$unwind$??1Tikhonov2D@@QEAA@XZ DD 020601H
	DD	030023206H
xdata	ENDS
;	COMDAT xdata
xdata	SEGMENT
$chain$4$?set_Lf_2ndDeriv@Tikhonov2D@@QEAAXXZ DD 060021H
	DD	08e400H
	DD	0107400H
	DD	0f3400H
	DD	imagerel $LN600
	DD	imagerel $LN600+127
	DD	imagerel $unwind$?set_Lf_2ndDeriv@Tikhonov2D@@QEAAXXZ
xdata	ENDS
;	COMDAT xdata
xdata	SEGMENT
$chain$3$?set_Lf_2ndDeriv@Tikhonov2D@@QEAAXXZ DD 021H
	DD	imagerel $LN600
	DD	imagerel $LN600+127
	DD	imagerel $unwind$?set_Lf_2ndDeriv@Tikhonov2D@@QEAAXXZ
xdata	ENDS
;	COMDAT xdata
xdata	SEGMENT
$chain$2$?set_Lf_2ndDeriv@Tikhonov2D@@QEAAXXZ DD 061d21H
	DD	08e41dH
	DD	0107414H
	DD	0f3405H
	DD	imagerel $LN600
	DD	imagerel $LN600+127
	DD	imagerel $unwind$?set_Lf_2ndDeriv@Tikhonov2D@@QEAAXXZ
xdata	ENDS
;	COMDAT xdata
xdata	SEGMENT
$unwind$?set_Lf_2ndDeriv@Tikhonov2D@@QEAAXXZ DD 050b01H
	DD	0f007820bH
	DD	06003c005H
	DD	05002H
xdata	ENDS
;	COMDAT xdata
xdata	SEGMENT
$chain$4$?set_Lv_2ndDeriv@Tikhonov2D@@QEAAXXZ DD 060021H
	DD	08e400H
	DD	0107400H
	DD	0f3400H
	DD	imagerel $LN600
	DD	imagerel $LN600+127
	DD	imagerel $unwind$?set_Lv_2ndDeriv@Tikhonov2D@@QEAAXXZ
xdata	ENDS
;	COMDAT xdata
xdata	SEGMENT
$chain$3$?set_Lv_2ndDeriv@Tikhonov2D@@QEAAXXZ DD 021H
	DD	imagerel $LN600
	DD	imagerel $LN600+127
	DD	imagerel $unwind$?set_Lv_2ndDeriv@Tikhonov2D@@QEAAXXZ
xdata	ENDS
;	COMDAT xdata
xdata	SEGMENT
$chain$2$?set_Lv_2ndDeriv@Tikhonov2D@@QEAAXXZ DD 061d21H
	DD	08e41dH
	DD	0107414H
	DD	0f3405H
	DD	imagerel $LN600
	DD	imagerel $LN600+127
	DD	imagerel $unwind$?set_Lv_2ndDeriv@Tikhonov2D@@QEAAXXZ
xdata	ENDS
;	COMDAT xdata
xdata	SEGMENT
$unwind$?set_Lv_2ndDeriv@Tikhonov2D@@QEAAXXZ DD 050b01H
	DD	0f007820bH
	DD	06003c005H
	DD	05002H
xdata	ENDS
;	COMDAT xdata
xdata	SEGMENT
$ip2state$?solve@Tikhonov2D@@QEAA_NNNNN@Z DD imagerel ?solve@Tikhonov2D@@QEAA_NNNNN@Z
	DD	0ffffffffH
	DD	imagerel ?solve@Tikhonov2D@@QEAA_NNNNN@Z+392
	DD	00H
	DD	imagerel ?solve@Tikhonov2D@@QEAA_NNNNN@Z+431
	DD	0ffffffffH
	DD	imagerel ?solve@Tikhonov2D@@QEAA_NNNNN@Z+494
	DD	01H
	DD	imagerel ?solve@Tikhonov2D@@QEAA_NNNNN@Z+533
	DD	0ffffffffH
	DD	imagerel ?solve@Tikhonov2D@@QEAA_NNNNN@Z+714
	DD	02H
	DD	imagerel ?solve@Tikhonov2D@@QEAA_NNNNN@Z+753
	DD	0ffffffffH
	DD	imagerel ?solve@Tikhonov2D@@QEAA_NNNNN@Z+816
	DD	03H
	DD	imagerel ?solve@Tikhonov2D@@QEAA_NNNNN@Z+855
	DD	0ffffffffH
	DD	imagerel ?solve@Tikhonov2D@@QEAA_NNNNN@Z+969
	DD	06H
	DD	imagerel ?solve@Tikhonov2D@@QEAA_NNNNN@Z+1008
	DD	0ffffffffH
	DD	imagerel ?solve@Tikhonov2D@@QEAA_NNNNN@Z+1071
	DD	07H
	DD	imagerel ?solve@Tikhonov2D@@QEAA_NNNNN@Z+1110
	DD	0ffffffffH
	DD	imagerel ?solve@Tikhonov2D@@QEAA_NNNNN@Z+1242
	DD	04H
	DD	imagerel ?solve@Tikhonov2D@@QEAA_NNNNN@Z+1281
	DD	0ffffffffH
	DD	imagerel ?solve@Tikhonov2D@@QEAA_NNNNN@Z+1344
	DD	05H
	DD	imagerel ?solve@Tikhonov2D@@QEAA_NNNNN@Z+1383
	DD	0ffffffffH
xdata	ENDS
;	COMDAT xdata
xdata	SEGMENT
$stateUnwindMap$?solve@Tikhonov2D@@QEAA_NNNNN@Z DD 0ffffffffH
	DD	imagerel ?dtor$0@?0??solve@Tikhonov2D@@QEAA_NNNNN@Z@4HA
	DD	0ffffffffH
	DD	imagerel ?dtor$2@?0??solve@Tikhonov2D@@QEAA_NNNNN@Z@4HA
	DD	0ffffffffH
	DD	imagerel ?dtor$4@?0??solve@Tikhonov2D@@QEAA_NNNNN@Z@4HA
	DD	0ffffffffH
	DD	imagerel ?dtor$6@?0??solve@Tikhonov2D@@QEAA_NNNNN@Z@4HA
	DD	0ffffffffH
	DD	imagerel ?dtor$8@?0??solve@Tikhonov2D@@QEAA_NNNNN@Z@4HA
	DD	0ffffffffH
	DD	imagerel ?dtor$10@?0??solve@Tikhonov2D@@QEAA_NNNNN@Z@4HA
	DD	0ffffffffH
	DD	imagerel ?dtor$12@?0??solve@Tikhonov2D@@QEAA_NNNNN@Z@4HA
	DD	0ffffffffH
	DD	imagerel ?dtor$14@?0??solve@Tikhonov2D@@QEAA_NNNNN@Z@4HA
xdata	ENDS
;	COMDAT CONST
CONST	SEGMENT
$cppxdata$?solve@Tikhonov2D@@QEAA_NNNNN@Z DD 019930522H
	DD	08H
	DD	imagerel $stateUnwindMap$?solve@Tikhonov2D@@QEAA_NNNNN@Z
	DD	00H
	DD	00H
	DD	011H
	DD	imagerel $ip2state$?solve@Tikhonov2D@@QEAA_NNNNN@Z
	DD	030H
	DD	00H
	DD	01H
CONST	ENDS
;	COMDAT xdata
xdata	SEGMENT
$unwind$?solve@Tikhonov2D@@QEAA_NNNNN@Z DD 0113411H
	DD	089834H
	DD	09882fH
	DD	0a782aH
	DD	0b6826H
	DD	01e6422H
	DD	01d341eH
	DD	0180112H
	DD	07005e007H
	DD	05004H
	DD	imagerel __CxxFrameHandler3
	DD	imagerel $cppxdata$?solve@Tikhonov2D@@QEAA_NNNNN@Z
xdata	ENDS
;	COMDAT xdata
xdata	SEGMENT
$ip2state$?getAf@Tikhonov2D@@QEBA?AV?$Matrix@N$0?0$0?0$0A@$0?0$0?0@Eigen@@XZ DD imagerel ?getAf@Tikhonov2D@@QEBA?AV?$Matrix@N$0?0$0?0$0A@$0?0$0?0@Eigen@@XZ
	DD	0ffffffffH
	DD	imagerel ?getAf@Tikhonov2D@@QEBA?AV?$Matrix@N$0?0$0?0$0A@$0?0$0?0@Eigen@@XZ+125
	DD	00H
	DD	imagerel ?getAf@Tikhonov2D@@QEBA?AV?$Matrix@N$0?0$0?0$0A@$0?0$0?0@Eigen@@XZ+206
	DD	01H
	DD	imagerel ?getAf@Tikhonov2D@@QEBA?AV?$Matrix@N$0?0$0?0$0A@$0?0$0?0@Eigen@@XZ+355
	DD	03H
	DD	imagerel ?getAf@Tikhonov2D@@QEBA?AV?$Matrix@N$0?0$0?0$0A@$0?0$0?0@Eigen@@XZ+438
	DD	04H
	DD	imagerel ?getAf@Tikhonov2D@@QEBA?AV?$Matrix@N$0?0$0?0$0A@$0?0$0?0@Eigen@@XZ+677
	DD	0ffffffffH
xdata	ENDS
;	COMDAT xdata
xdata	SEGMENT
$stateUnwindMap$?getAf@Tikhonov2D@@QEBA?AV?$Matrix@N$0?0$0?0$0A@$0?0$0?0@Eigen@@XZ DD 0ffffffffH
	DD	imagerel ?dtor$0@?0??getAf@Tikhonov2D@@QEBA?AV?$Matrix@N$0?0$0?0$0A@$0?0$0?0@Eigen@@XZ@4HA
	DD	00H
	DD	imagerel ?dtor$3@?0??getAf@Tikhonov2D@@QEBA?AV?$Matrix@N$0?0$0?0$0A@$0?0$0?0@Eigen@@XZ@4HA
	DD	00H
	DD	imagerel ?dtor$1@?0??getAf@Tikhonov2D@@QEBA?AV?$Matrix@N$0?0$0?0$0A@$0?0$0?0@Eigen@@XZ@4HA
	DD	0ffffffffH
	DD	imagerel ?dtor$1@?0??getAf@Tikhonov2D@@QEBA?AV?$Matrix@N$0?0$0?0$0A@$0?0$0?0@Eigen@@XZ@4HA
	DD	03H
	DD	imagerel ?dtor$5@?0??getAf@Tikhonov2D@@QEBA?AV?$Matrix@N$0?0$0?0$0A@$0?0$0?0@Eigen@@XZ@4HA
xdata	ENDS
;	COMDAT CONST
CONST	SEGMENT
$cppxdata$?getAf@Tikhonov2D@@QEBA?AV?$Matrix@N$0?0$0?0$0A@$0?0$0?0@Eigen@@XZ DD 019930522H
	DD	05H
	DD	imagerel $stateUnwindMap$?getAf@Tikhonov2D@@QEBA?AV?$Matrix@N$0?0$0?0$0A@$0?0$0?0@Eigen@@XZ
	DD	00H
	DD	00H
	DD	06H
	DD	imagerel $ip2state$?getAf@Tikhonov2D@@QEBA?AV?$Matrix@N$0?0$0?0$0A@$0?0$0?0@Eigen@@XZ
	DD	030H
	DD	00H
	DD	01H
CONST	ENDS
;	COMDAT xdata
xdata	SEGMENT
$unwind$?getAf@Tikhonov2D@@QEBA?AV?$Matrix@N$0?0$0?0$0A@$0?0$0?0@Eigen@@XZ DD 0b3619H
	DD	01e3428H
	DD	0140118H
	DD	0e00af00cH
	DD	0c006d008H
	DD	060037004H
	DD	05002H
	DD	imagerel __GSHandlerCheck_EH
	DD	imagerel $cppxdata$?getAf@Tikhonov2D@@QEBA?AV?$Matrix@N$0?0$0?0$0A@$0?0$0?0@Eigen@@XZ
	DD	092H
xdata	ENDS
;	COMDAT xdata
xdata	SEGMENT
$ip2state$?open@IGORdata@@YA_NAEAV?$basic_ofstream@DU?$char_traits@D@std@@@std@@V?$basic_string@DU?$char_traits@D@std@@V?$allocator@D@2@@3@W4OpenCondition@1@@Z DD imagerel ?open@IGORdata@@YA_NAEAV?$basic_ofstream@DU?$char_traits@D@std@@@std@@V?$basic_string@DU?$char_traits@D@std@@V?$allocator@D@2@@3@W4OpenCondition@1@@Z
	DD	0ffffffffH
	DD	imagerel ?open@IGORdata@@YA_NAEAV?$basic_ofstream@DU?$char_traits@D@std@@@std@@V?$basic_string@DU?$char_traits@D@std@@V?$allocator@D@2@@3@W4OpenCondition@1@@Z+52
	DD	00H
	DD	imagerel ?open@IGORdata@@YA_NAEAV?$basic_ofstream@DU?$char_traits@D@std@@@std@@V?$basic_string@DU?$char_traits@D@std@@V?$allocator@D@2@@3@W4OpenCondition@1@@Z+165
	DD	01H
	DD	imagerel ?open@IGORdata@@YA_NAEAV?$basic_ofstream@DU?$char_traits@D@std@@@std@@V?$basic_string@DU?$char_traits@D@std@@V?$allocator@D@2@@3@W4OpenCondition@1@@Z+212
	DD	00H
	DD	imagerel ?open@IGORdata@@YA_NAEAV?$basic_ofstream@DU?$char_traits@D@std@@@std@@V?$basic_string@DU?$char_traits@D@std@@V?$allocator@D@2@@3@W4OpenCondition@1@@Z+504
	DD	0ffffffffH
xdata	ENDS
;	COMDAT xdata
xdata	SEGMENT
$stateUnwindMap$?open@IGORdata@@YA_NAEAV?$basic_ofstream@DU?$char_traits@D@std@@@std@@V?$basic_string@DU?$char_traits@D@std@@V?$allocator@D@2@@3@W4OpenCondition@1@@Z DD 0ffffffffH
	DD	imagerel ?dtor$0@?0??open@IGORdata@@YA_NAEAV?$basic_ofstream@DU?$char_traits@D@std@@@std@@V?$basic_string@DU?$char_traits@D@std@@V?$allocator@D@2@@3@W4OpenCondition@1@@Z@4HA
	DD	00H
	DD	imagerel ?dtor$1@?0??open@IGORdata@@YA_NAEAV?$basic_ofstream@DU?$char_traits@D@std@@@std@@V?$basic_string@DU?$char_traits@D@std@@V?$allocator@D@2@@3@W4OpenCondition@1@@Z@4HA
	DD	00H
	DD	00H
	DD	02H
	DD	00H
	DD	02H
	DD	00H
xdata	ENDS
;	COMDAT CONST
CONST	SEGMENT
$cppxdata$?open@IGORdata@@YA_NAEAV?$basic_ofstream@DU?$char_traits@D@std@@@std@@V?$basic_string@DU?$char_traits@D@std@@V?$allocator@D@2@@3@W4OpenCondition@1@@Z DD 019930522H
	DD	05H
	DD	imagerel $stateUnwindMap$?open@IGORdata@@YA_NAEAV?$basic_ofstream@DU?$char_traits@D@std@@@std@@V?$basic_string@DU?$char_traits@D@std@@V?$allocator@D@2@@3@W4OpenCondition@1@@Z
	DD	00H
	DD	00H
	DD	05H
	DD	imagerel $ip2state$?open@IGORdata@@YA_NAEAV?$basic_ofstream@DU?$char_traits@D@std@@@std@@V?$basic_string@DU?$char_traits@D@std@@V?$allocator@D@2@@3@W4OpenCondition@1@@Z
	DD	020H
	DD	00H
	DD	01H
CONST	ENDS
;	COMDAT xdata
xdata	SEGMENT
$unwind$?open@IGORdata@@YA_NAEAV?$basic_ofstream@DU?$char_traits@D@std@@@std@@V?$basic_string@DU?$char_traits@D@std@@V?$allocator@D@2@@3@W4OpenCondition@1@@Z DD 082a19H
	DD	013541bH
	DD	0123417H
	DD	0e007b20bH
	DD	060047005H
	DD	imagerel __GSHandlerCheck_EH
	DD	imagerel $cppxdata$?open@IGORdata@@YA_NAEAV?$basic_ofstream@DU?$char_traits@D@std@@@std@@V?$basic_string@DU?$char_traits@D@std@@V?$allocator@D@2@@3@W4OpenCondition@1@@Z
	DD	052H
xdata	ENDS
;	COMDAT xdata
xdata	SEGMENT
$ip2state$?updateF@Tikhonov2D@@AEAA_NNN@Z DD imagerel ?updateF@Tikhonov2D@@AEAA_NNN@Z
	DD	0ffffffffH
	DD	imagerel ?updateF@Tikhonov2D@@AEAA_NNN@Z+103
	DD	00H
	DD	imagerel ?updateF@Tikhonov2D@@AEAA_NNN@Z+167
	DD	01H
	DD	imagerel ?updateF@Tikhonov2D@@AEAA_NNN@Z+288
	DD	02H
	DD	imagerel ?updateF@Tikhonov2D@@AEAA_NNN@Z+655
	DD	04H
	DD	imagerel ?updateF@Tikhonov2D@@AEAA_NNN@Z+666
	DD	05H
	DD	imagerel ?updateF@Tikhonov2D@@AEAA_NNN@Z+880
	DD	06H
	DD	imagerel ?updateF@Tikhonov2D@@AEAA_NNN@Z+921
	DD	05H
	DD	imagerel ?updateF@Tikhonov2D@@AEAA_NNN@Z+992
	DD	07H
	DD	imagerel ?updateF@Tikhonov2D@@AEAA_NNN@Z+1033
	DD	05H
	DD	imagerel ?updateF@Tikhonov2D@@AEAA_NNN@Z+1105
	DD	08H
	DD	imagerel ?updateF@Tikhonov2D@@AEAA_NNN@Z+1152
	DD	05H
	DD	imagerel ?updateF@Tikhonov2D@@AEAA_NNN@Z+1225
	DD	09H
	DD	imagerel ?updateF@Tikhonov2D@@AEAA_NNN@Z+1245
	DD	0aH
	DD	imagerel ?updateF@Tikhonov2D@@AEAA_NNN@Z+1381
	DD	0cH
	DD	imagerel ?updateF@Tikhonov2D@@AEAA_NNN@Z+1444
	DD	0dH
	DD	imagerel ?updateF@Tikhonov2D@@AEAA_NNN@Z+1485
	DD	0cH
	DD	imagerel ?updateF@Tikhonov2D@@AEAA_NNN@Z+1562
	DD	05H
	DD	imagerel ?updateF@Tikhonov2D@@AEAA_NNN@Z+1573
	DD	0ffffffffH
xdata	ENDS
;	COMDAT xdata
xdata	SEGMENT
$stateUnwindMap$?updateF@Tikhonov2D@@AEAA_NNN@Z DD 0ffffffffH
	DD	imagerel ?dtor$0@?0??updateF@Tikhonov2D@@AEAA_NNN@Z@4HA
	DD	00H
	DD	imagerel ?dtor$1@?0??updateF@Tikhonov2D@@AEAA_NNN@Z@4HA
	DD	01H
	DD	imagerel ?dtor$13@?0??updateF@Tikhonov2D@@AEAA_NNN@Z@4HA
	DD	01H
	DD	imagerel ?dtor$2@?0??updateF@Tikhonov2D@@AEAA_NNN@Z@4HA
	DD	00H
	DD	imagerel ?dtor$2@?0??updateF@Tikhonov2D@@AEAA_NNN@Z@4HA
	DD	0ffffffffH
	DD	imagerel ?dtor$2@?0??updateF@Tikhonov2D@@AEAA_NNN@Z@4HA
	DD	05H
	DD	imagerel ?dtor$3@?0??updateF@Tikhonov2D@@AEAA_NNN@Z@4HA
	DD	05H
	DD	imagerel ?dtor$5@?0??updateF@Tikhonov2D@@AEAA_NNN@Z@4HA
	DD	05H
	DD	imagerel ?dtor$7@?0??updateF@Tikhonov2D@@AEAA_NNN@Z@4HA
	DD	05H
	DD	imagerel ?dtor$9@?0??updateF@Tikhonov2D@@AEAA_NNN@Z@4HA
	DD	09H
	DD	imagerel ?dtor$15@?0??updateF@Tikhonov2D@@AEAA_NNN@Z@4HA
	DD	09H
	DD	imagerel ?dtor$10@?0??updateF@Tikhonov2D@@AEAA_NNN@Z@4HA
	DD	05H
	DD	imagerel ?dtor$10@?0??updateF@Tikhonov2D@@AEAA_NNN@Z@4HA
	DD	0cH
	DD	imagerel ?dtor$11@?0??updateF@Tikhonov2D@@AEAA_NNN@Z@4HA
xdata	ENDS
;	COMDAT CONST
CONST	SEGMENT
$cppxdata$?updateF@Tikhonov2D@@AEAA_NNN@Z DD 019930522H
	DD	0eH
	DD	imagerel $stateUnwindMap$?updateF@Tikhonov2D@@AEAA_NNN@Z
	DD	00H
	DD	00H
	DD	013H
	DD	imagerel $ip2state$?updateF@Tikhonov2D@@AEAA_NNN@Z
	DD	0c0H
	DD	00H
	DD	01H
CONST	ENDS
;	COMDAT xdata
xdata	SEGMENT
$unwind$?updateF@Tikhonov2D@@AEAA_NNN@Z DD 0d3819H
	DD	014682aH
	DD	0336426H
	DD	0323422H
	DD	02a0116H
	DD	0e009f00bH
	DD	07005c007H
	DD	05004H
	DD	imagerel __GSHandlerCheck_EH
	DD	imagerel $cppxdata$?updateF@Tikhonov2D@@AEAA_NNN@Z
	DD	0132H
xdata	ENDS
;	COMDAT xdata
xdata	SEGMENT
$ip2state$?updateV@Tikhonov2D@@AEAA_NNN@Z DD imagerel ?updateV@Tikhonov2D@@AEAA_NNN@Z
	DD	0ffffffffH
	DD	imagerel ?updateV@Tikhonov2D@@AEAA_NNN@Z+106
	DD	00H
	DD	imagerel ?updateV@Tikhonov2D@@AEAA_NNN@Z+170
	DD	01H
	DD	imagerel ?updateV@Tikhonov2D@@AEAA_NNN@Z+291
	DD	02H
	DD	imagerel ?updateV@Tikhonov2D@@AEAA_NNN@Z+655
	DD	04H
	DD	imagerel ?updateV@Tikhonov2D@@AEAA_NNN@Z+666
	DD	05H
	DD	imagerel ?updateV@Tikhonov2D@@AEAA_NNN@Z+880
	DD	06H
	DD	imagerel ?updateV@Tikhonov2D@@AEAA_NNN@Z+927
	DD	05H
	DD	imagerel ?updateV@Tikhonov2D@@AEAA_NNN@Z+998
	DD	07H
	DD	imagerel ?updateV@Tikhonov2D@@AEAA_NNN@Z+1039
	DD	05H
	DD	imagerel ?updateV@Tikhonov2D@@AEAA_NNN@Z+1110
	DD	08H
	DD	imagerel ?updateV@Tikhonov2D@@AEAA_NNN@Z+1151
	DD	05H
	DD	imagerel ?updateV@Tikhonov2D@@AEAA_NNN@Z+1228
	DD	09H
	DD	imagerel ?updateV@Tikhonov2D@@AEAA_NNN@Z+1248
	DD	0aH
	DD	imagerel ?updateV@Tikhonov2D@@AEAA_NNN@Z+1384
	DD	0cH
	DD	imagerel ?updateV@Tikhonov2D@@AEAA_NNN@Z+1447
	DD	0dH
	DD	imagerel ?updateV@Tikhonov2D@@AEAA_NNN@Z+1488
	DD	0cH
	DD	imagerel ?updateV@Tikhonov2D@@AEAA_NNN@Z+1565
	DD	05H
	DD	imagerel ?updateV@Tikhonov2D@@AEAA_NNN@Z+1576
	DD	0ffffffffH
xdata	ENDS
;	COMDAT xdata
xdata	SEGMENT
$stateUnwindMap$?updateV@Tikhonov2D@@AEAA_NNN@Z DD 0ffffffffH
	DD	imagerel ?dtor$0@?0??updateV@Tikhonov2D@@AEAA_NNN@Z@4HA
	DD	00H
	DD	imagerel ?dtor$1@?0??updateV@Tikhonov2D@@AEAA_NNN@Z@4HA
	DD	01H
	DD	imagerel ?dtor$13@?0??updateV@Tikhonov2D@@AEAA_NNN@Z@4HA
	DD	01H
	DD	imagerel ?dtor$2@?0??updateV@Tikhonov2D@@AEAA_NNN@Z@4HA
	DD	00H
	DD	imagerel ?dtor$2@?0??updateV@Tikhonov2D@@AEAA_NNN@Z@4HA
	DD	0ffffffffH
	DD	imagerel ?dtor$2@?0??updateV@Tikhonov2D@@AEAA_NNN@Z@4HA
	DD	05H
	DD	imagerel ?dtor$3@?0??updateV@Tikhonov2D@@AEAA_NNN@Z@4HA
	DD	05H
	DD	imagerel ?dtor$5@?0??updateV@Tikhonov2D@@AEAA_NNN@Z@4HA
	DD	05H
	DD	imagerel ?dtor$7@?0??updateV@Tikhonov2D@@AEAA_NNN@Z@4HA
	DD	05H
	DD	imagerel ?dtor$9@?0??updateV@Tikhonov2D@@AEAA_NNN@Z@4HA
	DD	09H
	DD	imagerel ?dtor$15@?0??updateV@Tikhonov2D@@AEAA_NNN@Z@4HA
	DD	09H
	DD	imagerel ?dtor$10@?0??updateV@Tikhonov2D@@AEAA_NNN@Z@4HA
	DD	05H
	DD	imagerel ?dtor$10@?0??updateV@Tikhonov2D@@AEAA_NNN@Z@4HA
	DD	0cH
	DD	imagerel ?dtor$11@?0??updateV@Tikhonov2D@@AEAA_NNN@Z@4HA
xdata	ENDS
;	COMDAT CONST
CONST	SEGMENT
$cppxdata$?updateV@Tikhonov2D@@AEAA_NNN@Z DD 019930522H
	DD	0eH
	DD	imagerel $stateUnwindMap$?updateV@Tikhonov2D@@AEAA_NNN@Z
	DD	00H
	DD	00H
	DD	013H
	DD	imagerel $ip2state$?updateV@Tikhonov2D@@AEAA_NNN@Z
	DD	0c0H
	DD	00H
	DD	01H
CONST	ENDS
;	COMDAT xdata
xdata	SEGMENT
$unwind$?updateV@Tikhonov2D@@AEAA_NNN@Z DD 0d3819H
	DD	014682aH
	DD	0336426H
	DD	0323422H
	DD	02a0116H
	DD	0e009f00bH
	DD	07005c007H
	DD	05004H
	DD	imagerel __GSHandlerCheck_EH
	DD	imagerel $cppxdata$?updateV@Tikhonov2D@@AEAA_NNN@Z
	DD	0132H
xdata	ENDS
;	COMDAT xdata
xdata	SEGMENT
$ip2state$?updateFandV@Tikhonov2D@@AEAA_NNNNN@Z DD imagerel ?updateFandV@Tikhonov2D@@AEAA_NNNNN@Z
	DD	0ffffffffH
	DD	imagerel ?updateFandV@Tikhonov2D@@AEAA_NNNNN@Z+92
	DD	00H
	DD	imagerel ?updateFandV@Tikhonov2D@@AEAA_NNNNN@Z+154
	DD	01H
	DD	imagerel ?updateFandV@Tikhonov2D@@AEAA_NNNNN@Z+542
	DD	00H
	DD	imagerel ?updateFandV@Tikhonov2D@@AEAA_NNNNN@Z+554
	DD	0ffffffffH
	DD	imagerel ?updateFandV@Tikhonov2D@@AEAA_NNNNN@Z+1047
	DD	02H
	DD	imagerel ?updateFandV@Tikhonov2D@@AEAA_NNNNN@Z+1090
	DD	0ffffffffH
	DD	imagerel ?updateFandV@Tikhonov2D@@AEAA_NNNNN@Z+1154
	DD	03H
	DD	imagerel ?updateFandV@Tikhonov2D@@AEAA_NNNNN@Z+1197
	DD	0ffffffffH
	DD	imagerel ?updateFandV@Tikhonov2D@@AEAA_NNNNN@Z+1261
	DD	04H
	DD	imagerel ?updateFandV@Tikhonov2D@@AEAA_NNNNN@Z+1304
	DD	0ffffffffH
xdata	ENDS
;	COMDAT xdata
xdata	SEGMENT
$stateUnwindMap$?updateFandV@Tikhonov2D@@AEAA_NNNNN@Z DD 0ffffffffH
	DD	imagerel ?dtor$0@?0??updateFandV@Tikhonov2D@@AEAA_NNNNN@Z@4HA
	DD	00H
	DD	imagerel ?dtor$1@?0??updateFandV@Tikhonov2D@@AEAA_NNNNN@Z@4HA
	DD	0ffffffffH
	DD	imagerel ?dtor$2@?0??updateFandV@Tikhonov2D@@AEAA_NNNNN@Z@4HA
	DD	0ffffffffH
	DD	imagerel ?dtor$4@?0??updateFandV@Tikhonov2D@@AEAA_NNNNN@Z@4HA
	DD	0ffffffffH
	DD	imagerel ?dtor$6@?0??updateFandV@Tikhonov2D@@AEAA_NNNNN@Z@4HA
xdata	ENDS
;	COMDAT CONST
CONST	SEGMENT
$cppxdata$?updateFandV@Tikhonov2D@@AEAA_NNNNN@Z DD 019930522H
	DD	05H
	DD	imagerel $stateUnwindMap$?updateFandV@Tikhonov2D@@AEAA_NNNNN@Z
	DD	00H
	DD	00H
	DD	0bH
	DD	imagerel $ip2state$?updateFandV@Tikhonov2D@@AEAA_NNNNN@Z
	DD	078H
	DD	00H
	DD	01H
CONST	ENDS
;	COMDAT xdata
xdata	SEGMENT
$unwind$?updateFandV@Tikhonov2D@@AEAA_NNNNN@Z DD 0d3619H
	DD	0d7828H
	DD	0e6824H
	DD	01e0118H
	DD	0e00bf00dH
	DD	07007c009H
	DD	030056006H
	DD	05004H
	DD	imagerel __GSHandlerCheck_EH
	DD	imagerel $cppxdata$?updateFandV@Tikhonov2D@@AEAA_NNNNN@Z
	DD	0caH
xdata	ENDS
;	COMDAT xdata
xdata	SEGMENT
$ip2state$?setJandH@Tikhonov2D@@AEAA_NNN@Z DD imagerel ?setJandH@Tikhonov2D@@AEAA_NNN@Z
	DD	0ffffffffH
	DD	imagerel ?setJandH@Tikhonov2D@@AEAA_NNN@Z+2190
	DD	00H
	DD	imagerel ?setJandH@Tikhonov2D@@AEAA_NNN@Z+2214
	DD	01H
	DD	imagerel ?setJandH@Tikhonov2D@@AEAA_NNN@Z+2229
	DD	02H
	DD	imagerel ?setJandH@Tikhonov2D@@AEAA_NNN@Z+2499
	DD	01H
	DD	imagerel ?setJandH@Tikhonov2D@@AEAA_NNN@Z+2510
	DD	00H
	DD	imagerel ?setJandH@Tikhonov2D@@AEAA_NNN@Z+2522
	DD	0ffffffffH
	DD	imagerel ?setJandH@Tikhonov2D@@AEAA_NNN@Z+2573
	DD	03H
	DD	imagerel ?setJandH@Tikhonov2D@@AEAA_NNN@Z+2594
	DD	04H
	DD	imagerel ?setJandH@Tikhonov2D@@AEAA_NNN@Z+2609
	DD	05H
	DD	imagerel ?setJandH@Tikhonov2D@@AEAA_NNN@Z+2883
	DD	04H
	DD	imagerel ?setJandH@Tikhonov2D@@AEAA_NNN@Z+2894
	DD	03H
	DD	imagerel ?setJandH@Tikhonov2D@@AEAA_NNN@Z+2906
	DD	0ffffffffH
	DD	imagerel ?setJandH@Tikhonov2D@@AEAA_NNN@Z+2944
	DD	06H
	DD	imagerel ?setJandH@Tikhonov2D@@AEAA_NNN@Z+2960
	DD	07H
	DD	imagerel ?setJandH@Tikhonov2D@@AEAA_NNN@Z+3267
	DD	06H
	DD	imagerel ?setJandH@Tikhonov2D@@AEAA_NNN@Z+3279
	DD	0ffffffffH
	DD	imagerel ?setJandH@Tikhonov2D@@AEAA_NNN@Z+3318
	DD	08H
	DD	imagerel ?setJandH@Tikhonov2D@@AEAA_NNN@Z+3334
	DD	09H
	DD	imagerel ?setJandH@Tikhonov2D@@AEAA_NNN@Z+3635
	DD	08H
	DD	imagerel ?setJandH@Tikhonov2D@@AEAA_NNN@Z+3647
	DD	0ffffffffH
	DD	imagerel ?setJandH@Tikhonov2D@@AEAA_NNN@Z+3710
	DD	0aH
	DD	imagerel ?setJandH@Tikhonov2D@@AEAA_NNN@Z+3974
	DD	0bH
	DD	imagerel ?setJandH@Tikhonov2D@@AEAA_NNN@Z+7056
	DD	0ffffffffH
xdata	ENDS
;	COMDAT xdata
xdata	SEGMENT
$stateUnwindMap$?setJandH@Tikhonov2D@@AEAA_NNN@Z DD 0ffffffffH
	DD	imagerel ?dtor$0@?0??setJandH@Tikhonov2D@@AEAA_NNN@Z@4HA
	DD	00H
	DD	imagerel ?dtor$1@?0??setJandH@Tikhonov2D@@AEAA_NNN@Z@4HA
	DD	01H
	DD	imagerel ?dtor$7@?0??setJandH@Tikhonov2D@@AEAA_NNN@Z@4HA
	DD	0ffffffffH
	DD	imagerel ?dtor$2@?0??setJandH@Tikhonov2D@@AEAA_NNN@Z@4HA
	DD	03H
	DD	imagerel ?dtor$3@?0??setJandH@Tikhonov2D@@AEAA_NNN@Z@4HA
	DD	04H
	DD	imagerel ?dtor$8@?0??setJandH@Tikhonov2D@@AEAA_NNN@Z@4HA
	DD	0ffffffffH
	DD	imagerel ?dtor$4@?0??setJandH@Tikhonov2D@@AEAA_NNN@Z@4HA
	DD	06H
	DD	imagerel ?dtor$9@?0??setJandH@Tikhonov2D@@AEAA_NNN@Z@4HA
	DD	0ffffffffH
	DD	imagerel ?dtor$5@?0??setJandH@Tikhonov2D@@AEAA_NNN@Z@4HA
	DD	08H
	DD	imagerel ?dtor$10@?0??setJandH@Tikhonov2D@@AEAA_NNN@Z@4HA
	DD	0ffffffffH
	DD	imagerel ?dtor$11@?0??setJandH@Tikhonov2D@@AEAA_NNN@Z@4HA
	DD	0ffffffffH
	DD	imagerel ?dtor$6@?0??setJandH@Tikhonov2D@@AEAA_NNN@Z@4HA
xdata	ENDS
;	COMDAT CONST
CONST	SEGMENT
$cppxdata$?setJandH@Tikhonov2D@@AEAA_NNN@Z DD 019930522H
	DD	0cH
	DD	imagerel $stateUnwindMap$?setJandH@Tikhonov2D@@AEAA_NNN@Z
	DD	00H
	DD	00H
	DD	018H
	DD	imagerel $ip2state$?setJandH@Tikhonov2D@@AEAA_NNN@Z
	DD	0e0H
	DD	00H
	DD	01H
CONST	ENDS
;	COMDAT xdata
xdata	SEGMENT
$unwind$?setJandH@Tikhonov2D@@AEAA_NNN@Z DD 0195919H
	DD	012b84bH
	DD	013a843H
	DD	014983eH
	DD	0158839H
	DD	0167834H
	DD	0176830H
	DD	039742cH
	DD	0386428H
	DD	0373424H
	DD	0300118H
	DD	0e00af00cH
	DD	0c006d008H
	DD	05004H
	DD	imagerel __GSHandlerCheck_EH
	DD	imagerel $cppxdata$?setJandH@Tikhonov2D@@AEAA_NNN@Z
	DD	0112H
xdata	ENDS
;	COMDAT xdata
xdata	SEGMENT
$unwind$?getA_ij@Tikhonov2D@@AEBAN_K0@Z DD 0e4601H
	DD	04f446H
	DD	05e441H
	DD	0cd43cH
	DD	0bc437H
	DD	0a5432H
	DD	070045208H
	DD	030026003H
xdata	ENDS
;	COMDAT xdata
xdata	SEGMENT
$unwind$?getAdv_ij@Tikhonov2D@@AEBAN_K0@Z DD 0104601H
	DD	027846H
	DD	036841H
	DD	0ff43cH
	DD	0ee437H
	DD	0dc432H
	DD	0c342dH
	DD	070047208H
	DD	050026003H
xdata	ENDS
;	COMDAT xdata
xdata	SEGMENT
$unwind$?block@?$DenseBase@V?$Matrix@N$0?0$00$0A@$0?0$00@Eigen@@@Eigen@@QEAA?AV?$Block@V?$Matrix@N$0?0$00$0A@$0?0$00@Eigen@@$0?0$0?0$0A@@2@_J000@Z DD 020601H
	DD	030025206H
xdata	ENDS
;	COMDAT xdata
xdata	SEGMENT
$unwind$??A?$DenseCoeffsBase@V?$Matrix@N$0?0$00$0A@$0?0$00@Eigen@@$0A@@Eigen@@QEBAAEBN_J@Z DD 040a01H
	DD	06340aH
	DD	07006320aH
xdata	ENDS
;	COMDAT xdata
xdata	SEGMENT
$unwind$??R?$DenseCoeffsBase@V?$Matrix@N$0?0$00$0A@$0?0$00@Eigen@@$0A@@Eigen@@QEBAAEBN_J@Z DD 040a01H
	DD	06340aH
	DD	07006320aH
xdata	ENDS
;	COMDAT xdata
xdata	SEGMENT
$unwind$?block@?$DenseBase@V?$Matrix@N$0?0$0?0$0A@$0?0$0?0@Eigen@@@Eigen@@QEAA?AV?$Block@V?$Matrix@N$0?0$0?0$0A@$0?0$0?0@Eigen@@$0?0$0?0$0A@@2@_J000@Z DD 020601H
	DD	030025206H
xdata	ENDS
;	COMDAT xdata
xdata	SEGMENT
$unwind$??R?$DenseCoeffsBase@V?$Matrix@N$0?0$0?0$0A@$0?0$0?0@Eigen@@$00@Eigen@@QEAAAEAN_J@Z DD 040a01H
	DD	06340aH
	DD	07006320aH
xdata	ENDS
;	COMDAT xdata
xdata	SEGMENT
$unwind$??0?$Block@V?$Matrix@N$0?0$00$0A@$0?0$00@Eigen@@$0?0$0?0$0A@@Eigen@@QEAA@AEAV?$Matrix@N$0?0$00$0A@$0?0$00@1@_J111@Z DD 081401H
	DD	086414H
	DD	075414H
	DD	063414H
	DD	070103214H
xdata	ENDS
;	COMDAT xdata
xdata	SEGMENT
$unwind$??0?$Block@V?$Matrix@N$0?0$0?0$0A@$0?0$0?0@Eigen@@$0?0$0?0$0A@@Eigen@@QEAA@AEAV?$Matrix@N$0?0$0?0$0A@$0?0$0?0@1@_J111@Z DD 0a1801H
	DD	0a6418H
	DD	095418H
	DD	083418H
	DD	0f0143218H
	DD	07010e012H
xdata	ENDS
;	COMDAT xdata
xdata	SEGMENT
$unwind$??0?$BlockImpl@V?$Matrix@N$0?0$00$0A@$0?0$00@Eigen@@$0?0$0?0$0A@UDense@2@@Eigen@@QEAA@AEAV?$Matrix@N$0?0$00$0A@$0?0$00@1@_J111@Z DD 040a01H
	DD	06340aH
	DD	07006320aH
xdata	ENDS
;	COMDAT xdata
xdata	SEGMENT
$unwind$??0?$BlockImpl@V?$Matrix@N$0?0$0?0$0A@$0?0$0?0@Eigen@@$0?0$0?0$0A@UDense@2@@Eigen@@QEAA@AEAV?$Matrix@N$0?0$0?0$0A@$0?0$0?0@1@_J111@Z DD 040a01H
	DD	06340aH
	DD	07006320aH
xdata	ENDS
;	COMDAT xdata
xdata	SEGMENT
$unwind$??0?$BlockImpl_dense@V?$Matrix@N$0?0$00$0A@$0?0$00@Eigen@@$0?0$0?0$0A@$00@internal@Eigen@@QEAA@AEAV?$Matrix@N$0?0$00$0A@$0?0$00@2@_J111@Z DD 040a01H
	DD	06340aH
	DD	07006320aH
xdata	ENDS
;	COMDAT xdata
xdata	SEGMENT
$unwind$??0?$BlockImpl_dense@V?$Matrix@N$0?0$0?0$0A@$0?0$0?0@Eigen@@$0?0$0?0$0A@$00@internal@Eigen@@QEAA@AEAV?$Matrix@N$0?0$0?0$0A@$0?0$0?0@2@_J111@Z DD 040a01H
	DD	06340aH
	DD	07006320aH
xdata	ENDS
;	COMDAT xdata
xdata	SEGMENT
$unwind$??0?$MapBase@V?$Block@V?$Matrix@N$0?0$00$0A@$0?0$00@Eigen@@$0?0$0?0$0A@@Eigen@@$00@Eigen@@QEAA@PEAN_J1@Z DD 020601H
	DD	030023206H
xdata	ENDS
;	COMDAT xdata
xdata	SEGMENT
$unwind$??0?$MapBase@V?$Block@V?$Matrix@N$0?0$0?0$0A@$0?0$0?0@Eigen@@$0?0$0?0$0A@@Eigen@@$00@Eigen@@QEAA@PEAN_J1@Z DD 020601H
	DD	030023206H
xdata	ENDS
;	COMDAT xdata
xdata	SEGMENT
$unwind$??0?$MapBase@V?$Block@V?$Matrix@N$0?0$00$0A@$0?0$00@Eigen@@$0?0$0?0$0A@@Eigen@@$0A@@Eigen@@QEAA@PEAN_J1@Z DD 020601H
	DD	030023206H
xdata	ENDS
;	COMDAT xdata
xdata	SEGMENT
$unwind$??0?$MapBase@V?$Block@V?$Matrix@N$0?0$0?0$0A@$0?0$0?0@Eigen@@$0?0$0?0$0A@@Eigen@@$0A@@Eigen@@QEAA@PEAN_J1@Z DD 020601H
	DD	030023206H
xdata	ENDS
;	COMDAT xdata
xdata	SEGMENT
$ip2state$??$?0V?$GeneralProduct@V?$Matrix@N$0?0$0?0$0A@$0?0$0?0@Eigen@@V?$MatrixWrapper@$$CBV?$CwiseUnaryOp@U?$scalar_exp_op@N@internal@Eigen@@$$CBV?$ArrayWrapper@$$CBV?$Matrix@N$0?0$00$0A@$0?0$00@Eigen@@@3@@Eigen@@@2@$03@Eigen@@@?$Matrix@N$0?0$00$0A@$0?0$00@Eigen@@QEAA@AEBV?$MatrixBase@V?$GeneralProduct@V?$Matrix@N$0?0$0?0$0A@$0?0$0?0@Eigen@@V?$MatrixWrapper@$$CBV?$CwiseUnaryOp@U?$scalar_exp_op@N@internal@Eigen@@$$CBV?$ArrayWrapper@$$CBV?$Matrix@N$0?0$00$0A@$0?0$00@Eigen@@@3@@Eigen@@@2@$03@Eigen@@@1@@Z DD imagerel ??$?0V?$GeneralProduct@V?$Matrix@N$0?0$0?0$0A@$0?0$0?0@Eigen@@V?$MatrixWrapper@$$CBV?$CwiseUnaryOp@U?$scalar_exp_op@N@internal@Eigen@@$$CBV?$ArrayWrapper@$$CBV?$Matrix@N$0?0$00$0A@$0?0$00@Eigen@@@3@@Eigen@@@2@$03@Eigen@@@?$Matrix@N$0?0$00$0A@$0?0$00@Eigen@@QEAA@AEBV?$MatrixBase@V?$GeneralProduct@V?$Matrix@N$0?0$0?0$0A@$0?0$0?0@Eigen@@V?$MatrixWrapper@$$CBV?$CwiseUnaryOp@U?$scalar_exp_op@N@internal@Eigen@@$$CBV?$ArrayWrapper@$$CBV?$Matrix@N$0?0$00$0A@$0?0$00@Eigen@@@3@@Eigen@@@2@$03@Eigen@@@1@@Z
	DD	0ffffffffH
	DD	imagerel ??$?0V?$GeneralProduct@V?$Matrix@N$0?0$0?0$0A@$0?0$0?0@Eigen@@V?$MatrixWrapper@$$CBV?$CwiseUnaryOp@U?$scalar_exp_op@N@internal@Eigen@@$$CBV?$ArrayWrapper@$$CBV?$Matrix@N$0?0$00$0A@$0?0$00@Eigen@@@3@@Eigen@@@2@$03@Eigen@@@?$Matrix@N$0?0$00$0A@$0?0$00@Eigen@@QEAA@AEBV?$MatrixBase@V?$GeneralProduct@V?$Matrix@N$0?0$0?0$0A@$0?0$0?0@Eigen@@V?$MatrixWrapper@$$CBV?$CwiseUnaryOp@U?$scalar_exp_op@N@internal@Eigen@@$$CBV?$ArrayWrapper@$$CBV?$Matrix@N$0?0$00$0A@$0?0$00@Eigen@@@3@@Eigen@@@2@$03@Eigen@@@1@@Z+118
	DD	00H
	DD	imagerel ??$?0V?$GeneralProduct@V?$Matrix@N$0?0$0?0$0A@$0?0$0?0@Eigen@@V?$MatrixWrapper@$$CBV?$CwiseUnaryOp@U?$scalar_exp_op@N@internal@Eigen@@$$CBV?$ArrayWrapper@$$CBV?$Matrix@N$0?0$00$0A@$0?0$00@Eigen@@@3@@Eigen@@@2@$03@Eigen@@@?$Matrix@N$0?0$00$0A@$0?0$00@Eigen@@QEAA@AEBV?$MatrixBase@V?$GeneralProduct@V?$Matrix@N$0?0$0?0$0A@$0?0$0?0@Eigen@@V?$MatrixWrapper@$$CBV?$CwiseUnaryOp@U?$scalar_exp_op@N@internal@Eigen@@$$CBV?$ArrayWrapper@$$CBV?$Matrix@N$0?0$00$0A@$0?0$00@Eigen@@@3@@Eigen@@@2@$03@Eigen@@@1@@Z+264
	DD	0ffffffffH
xdata	ENDS
;	COMDAT xdata
xdata	SEGMENT
$stateUnwindMap$??$?0V?$GeneralProduct@V?$Matrix@N$0?0$0?0$0A@$0?0$0?0@Eigen@@V?$MatrixWrapper@$$CBV?$CwiseUnaryOp@U?$scalar_exp_op@N@internal@Eigen@@$$CBV?$ArrayWrapper@$$CBV?$Matrix@N$0?0$00$0A@$0?0$00@Eigen@@@3@@Eigen@@@2@$03@Eigen@@@?$Matrix@N$0?0$00$0A@$0?0$00@Eigen@@QEAA@AEBV?$MatrixBase@V?$GeneralProduct@V?$Matrix@N$0?0$0?0$0A@$0?0$0?0@Eigen@@V?$MatrixWrapper@$$CBV?$CwiseUnaryOp@U?$scalar_exp_op@N@internal@Eigen@@$$CBV?$ArrayWrapper@$$CBV?$Matrix@N$0?0$00$0A@$0?0$00@Eigen@@@3@@Eigen@@@2@$03@Eigen@@@1@@Z DD 0ffffffffH
	DD	imagerel ?dtor$0@?0???$?0V?$GeneralProduct@V?$Matrix@N$0?0$0?0$0A@$0?0$0?0@Eigen@@V?$MatrixWrapper@$$CBV?$CwiseUnaryOp@U?$scalar_exp_op@N@internal@Eigen@@$$CBV?$ArrayWrapper@$$CBV?$Matrix@N$0?0$00$0A@$0?0$00@Eigen@@@3@@Eigen@@@2@$03@Eigen@@@?$Matrix@N$0?0$00$0A@$0?0$00@Eigen@@QEAA@AEBV?$MatrixBase@V?$GeneralProduct@V?$Matrix@N$0?0$0?0$0A@$0?0$0?0@Eigen@@V?$MatrixWrapper@$$CBV?$CwiseUnaryOp@U?$scalar_exp_op@N@internal@Eigen@@$$CBV?$ArrayWrapper@$$CBV?$Matrix@N$0?0$00$0A@$0?0$00@Eigen@@@3@@Eigen@@@2@$03@Eigen@@@1@@Z@4HA
xdata	ENDS
;	COMDAT CONST
CONST	SEGMENT
$cppxdata$??$?0V?$GeneralProduct@V?$Matrix@N$0?0$0?0$0A@$0?0$0?0@Eigen@@V?$MatrixWrapper@$$CBV?$CwiseUnaryOp@U?$scalar_exp_op@N@internal@Eigen@@$$CBV?$ArrayWrapper@$$CBV?$Matrix@N$0?0$00$0A@$0?0$00@Eigen@@@3@@Eigen@@@2@$03@Eigen@@@?$Matrix@N$0?0$00$0A@$0?0$00@Eigen@@QEAA@AEBV?$MatrixBase@V?$GeneralProduct@V?$Matrix@N$0?0$0?0$0A@$0?0$0?0@Eigen@@V?$MatrixWrapper@$$CBV?$CwiseUnaryOp@U?$scalar_exp_op@N@internal@Eigen@@$$CBV?$ArrayWrapper@$$CBV?$Matrix@N$0?0$00$0A@$0?0$00@Eigen@@@3@@Eigen@@@2@$03@Eigen@@@1@@Z DD 019930522H
	DD	01H
	DD	imagerel $stateUnwindMap$??$?0V?$GeneralProduct@V?$Matrix@N$0?0$0?0$0A@$0?0$0?0@Eigen@@V?$MatrixWrapper@$$CBV?$CwiseUnaryOp@U?$scalar_exp_op@N@internal@Eigen@@$$CBV?$ArrayWrapper@$$CBV?$Matrix@N$0?0$00$0A@$0?0$00@Eigen@@@3@@Eigen@@@2@$03@Eigen@@@?$Matrix@N$0?0$00$0A@$0?0$00@Eigen@@QEAA@AEBV?$MatrixBase@V?$GeneralProduct@V?$Matrix@N$0?0$0?0$0A@$0?0$0?0@Eigen@@V?$MatrixWrapper@$$CBV?$CwiseUnaryOp@U?$scalar_exp_op@N@internal@Eigen@@$$CBV?$ArrayWrapper@$$CBV?$Matrix@N$0?0$00$0A@$0?0$00@Eigen@@@3@@Eigen@@@2@$03@Eigen@@@1@@Z
	DD	00H
	DD	00H
	DD	03H
	DD	imagerel $ip2state$??$?0V?$GeneralProduct@V?$Matrix@N$0?0$0?0$0A@$0?0$0?0@Eigen@@V?$MatrixWrapper@$$CBV?$CwiseUnaryOp@U?$scalar_exp_op@N@internal@Eigen@@$$CBV?$ArrayWrapper@$$CBV?$Matrix@N$0?0$00$0A@$0?0$00@Eigen@@@3@@Eigen@@@2@$03@Eigen@@@?$Matrix@N$0?0$00$0A@$0?0$00@Eigen@@QEAA@AEBV?$MatrixBase@V?$GeneralProduct@V?$Matrix@N$0?0$0?0$0A@$0?0$0?0@Eigen@@V?$MatrixWrapper@$$CBV?$CwiseUnaryOp@U?$scalar_exp_op@N@internal@Eigen@@$$CBV?$ArrayWrapper@$$CBV?$Matrix@N$0?0$00$0A@$0?0$00@Eigen@@@3@@Eigen@@@2@$03@Eigen@@@1@@Z
	DD	020H
	DD	00H
	DD	01H
CONST	ENDS
;	COMDAT xdata
xdata	SEGMENT
$unwind$??$?0V?$GeneralProduct@V?$Matrix@N$0?0$0?0$0A@$0?0$0?0@Eigen@@V?$MatrixWrapper@$$CBV?$CwiseUnaryOp@U?$scalar_exp_op@N@internal@Eigen@@$$CBV?$ArrayWrapper@$$CBV?$Matrix@N$0?0$00$0A@$0?0$00@Eigen@@@3@@Eigen@@@2@$03@Eigen@@@?$Matrix@N$0?0$00$0A@$0?0$00@Eigen@@QEAA@AEBV?$MatrixBase@V?$GeneralProduct@V?$Matrix@N$0?0$0?0$0A@$0?0$0?0@Eigen@@V?$MatrixWrapper@$$CBV?$CwiseUnaryOp@U?$scalar_exp_op@N@internal@Eigen@@$$CBV?$ArrayWrapper@$$CBV?$Matrix@N$0?0$00$0A@$0?0$00@Eigen@@@3@@Eigen@@@2@$03@Eigen@@@1@@Z DD 082311H
	DD	0b7423H
	DD	0a641eH
	DD	093419H
	DD	0e007520bH
	DD	imagerel __CxxFrameHandler3
	DD	imagerel $cppxdata$??$?0V?$GeneralProduct@V?$Matrix@N$0?0$0?0$0A@$0?0$0?0@Eigen@@V?$MatrixWrapper@$$CBV?$CwiseUnaryOp@U?$scalar_exp_op@N@internal@Eigen@@$$CBV?$ArrayWrapper@$$CBV?$Matrix@N$0?0$00$0A@$0?0$00@Eigen@@@3@@Eigen@@@2@$03@Eigen@@@?$Matrix@N$0?0$00$0A@$0?0$00@Eigen@@QEAA@AEBV?$MatrixBase@V?$GeneralProduct@V?$Matrix@N$0?0$0?0$0A@$0?0$0?0@Eigen@@V?$MatrixWrapper@$$CBV?$CwiseUnaryOp@U?$scalar_exp_op@N@internal@Eigen@@$$CBV?$ArrayWrapper@$$CBV?$Matrix@N$0?0$00$0A@$0?0$00@Eigen@@@3@@Eigen@@@2@$03@Eigen@@@1@@Z
xdata	ENDS
;	COMDAT xdata
xdata	SEGMENT
$ip2state$??$write_itx@N$0?0$00$0A@$0?0$00@IGORdata@@YA_NAEBV?$Matrix@N$0?0$00$0A@$0?0$00@Eigen@@V?$basic_string@DU?$char_traits@D@std@@V?$allocator@D@2@@std@@1HW4OpenCondition@0@@Z DD imagerel ??$write_itx@N$0?0$00$0A@$0?0$00@IGORdata@@YA_NAEBV?$Matrix@N$0?0$00$0A@$0?0$00@Eigen@@V?$basic_string@DU?$char_traits@D@std@@V?$allocator@D@2@@std@@1HW4OpenCondition@0@@Z
	DD	0ffffffffH
	DD	imagerel ??$write_itx@N$0?0$00$0A@$0?0$00@IGORdata@@YA_NAEBV?$Matrix@N$0?0$00$0A@$0?0$00@Eigen@@V?$basic_string@DU?$char_traits@D@std@@V?$allocator@D@2@@std@@1HW4OpenCondition@0@@Z+60
	DD	01H
	DD	imagerel ??$write_itx@N$0?0$00$0A@$0?0$00@IGORdata@@YA_NAEBV?$Matrix@N$0?0$00$0A@$0?0$00@Eigen@@V?$basic_string@DU?$char_traits@D@std@@V?$allocator@D@2@@std@@1HW4OpenCondition@0@@Z+89
	DD	02H
	DD	imagerel ??$write_itx@N$0?0$00$0A@$0?0$00@IGORdata@@YA_NAEBV?$Matrix@N$0?0$00$0A@$0?0$00@Eigen@@V?$basic_string@DU?$char_traits@D@std@@V?$allocator@D@2@@std@@1HW4OpenCondition@0@@Z+150
	DD	01H
	DD	imagerel ??$write_itx@N$0?0$00$0A@$0?0$00@IGORdata@@YA_NAEBV?$Matrix@N$0?0$00$0A@$0?0$00@Eigen@@V?$basic_string@DU?$char_traits@D@std@@V?$allocator@D@2@@std@@1HW4OpenCondition@0@@Z+178
	DD	00H
	DD	imagerel ??$write_itx@N$0?0$00$0A@$0?0$00@IGORdata@@YA_NAEBV?$Matrix@N$0?0$00$0A@$0?0$00@Eigen@@V?$basic_string@DU?$char_traits@D@std@@V?$allocator@D@2@@std@@1HW4OpenCondition@0@@Z+209
	DD	0ffffffffH
	DD	imagerel ??$write_itx@N$0?0$00$0A@$0?0$00@IGORdata@@YA_NAEBV?$Matrix@N$0?0$00$0A@$0?0$00@Eigen@@V?$basic_string@DU?$char_traits@D@std@@V?$allocator@D@2@@std@@1HW4OpenCondition@0@@Z+232
	DD	02H
	DD	imagerel ??$write_itx@N$0?0$00$0A@$0?0$00@IGORdata@@YA_NAEBV?$Matrix@N$0?0$00$0A@$0?0$00@Eigen@@V?$basic_string@DU?$char_traits@D@std@@V?$allocator@D@2@@std@@1HW4OpenCondition@0@@Z+395
	DD	01H
	DD	imagerel ??$write_itx@N$0?0$00$0A@$0?0$00@IGORdata@@YA_NAEBV?$Matrix@N$0?0$00$0A@$0?0$00@Eigen@@V?$basic_string@DU?$char_traits@D@std@@V?$allocator@D@2@@std@@1HW4OpenCondition@0@@Z+423
	DD	00H
	DD	imagerel ??$write_itx@N$0?0$00$0A@$0?0$00@IGORdata@@YA_NAEBV?$Matrix@N$0?0$00$0A@$0?0$00@Eigen@@V?$basic_string@DU?$char_traits@D@std@@V?$allocator@D@2@@std@@1HW4OpenCondition@0@@Z+454
	DD	0ffffffffH
xdata	ENDS
;	COMDAT xdata
xdata	SEGMENT
$stateUnwindMap$??$write_itx@N$0?0$00$0A@$0?0$00@IGORdata@@YA_NAEBV?$Matrix@N$0?0$00$0A@$0?0$00@Eigen@@V?$basic_string@DU?$char_traits@D@std@@V?$allocator@D@2@@std@@1HW4OpenCondition@0@@Z DD 0ffffffffH
	DD	imagerel ?dtor$0@?0???$write_itx@N$0?0$00$0A@$0?0$00@IGORdata@@YA_NAEBV?$Matrix@N$0?0$00$0A@$0?0$00@Eigen@@V?$basic_string@DU?$char_traits@D@std@@V?$allocator@D@2@@std@@1HW4OpenCondition@0@@Z@4HA
	DD	00H
	DD	imagerel ?dtor$1@?0???$write_itx@N$0?0$00$0A@$0?0$00@IGORdata@@YA_NAEBV?$Matrix@N$0?0$00$0A@$0?0$00@Eigen@@V?$basic_string@DU?$char_traits@D@std@@V?$allocator@D@2@@std@@1HW4OpenCondition@0@@Z@4HA
	DD	01H
	DD	imagerel ?dtor$2@?0???$write_itx@N$0?0$00$0A@$0?0$00@IGORdata@@YA_NAEBV?$Matrix@N$0?0$00$0A@$0?0$00@Eigen@@V?$basic_string@DU?$char_traits@D@std@@V?$allocator@D@2@@std@@1HW4OpenCondition@0@@Z@4HA
xdata	ENDS
;	COMDAT CONST
CONST	SEGMENT
$cppxdata$??$write_itx@N$0?0$00$0A@$0?0$00@IGORdata@@YA_NAEBV?$Matrix@N$0?0$00$0A@$0?0$00@Eigen@@V?$basic_string@DU?$char_traits@D@std@@V?$allocator@D@2@@std@@1HW4OpenCondition@0@@Z DD 019930522H
	DD	03H
	DD	imagerel $stateUnwindMap$??$write_itx@N$0?0$00$0A@$0?0$00@IGORdata@@YA_NAEBV?$Matrix@N$0?0$00$0A@$0?0$00@Eigen@@V?$basic_string@DU?$char_traits@D@std@@V?$allocator@D@2@@std@@1HW4OpenCondition@0@@Z
	DD	00H
	DD	00H
	DD	0aH
	DD	imagerel $ip2state$??$write_itx@N$0?0$00$0A@$0?0$00@IGORdata@@YA_NAEBV?$Matrix@N$0?0$00$0A@$0?0$00@Eigen@@V?$basic_string@DU?$char_traits@D@std@@V?$allocator@D@2@@std@@1HW4OpenCondition@0@@Z
	DD	040H
	DD	00H
	DD	01H
CONST	ENDS
;	COMDAT xdata
xdata	SEGMENT
$unwind$??$write_itx@N$0?0$00$0A@$0?0$00@IGORdata@@YA_NAEBV?$Matrix@N$0?0$00$0A@$0?0$00@Eigen@@V?$basic_string@DU?$char_traits@D@std@@V?$allocator@D@2@@std@@1HW4OpenCondition@0@@Z DD 072919H
	DD	030010eH
	DD	07005e007H
	DD	050036004H
	DD	03002H
	DD	imagerel __GSHandlerCheck_EH
	DD	imagerel $cppxdata$??$write_itx@N$0?0$00$0A@$0?0$00@IGORdata@@YA_NAEBV?$Matrix@N$0?0$00$0A@$0?0$00@Eigen@@V?$basic_string@DU?$char_traits@D@std@@V?$allocator@D@2@@std@@1HW4OpenCondition@0@@Z
	DD	0172H
xdata	ENDS
;	COMDAT xdata
xdata	SEGMENT
$unwind$??$?DV?$MatrixWrapper@$$CBV?$CwiseUnaryOp@U?$scalar_exp_op@N@internal@Eigen@@$$CBV?$ArrayWrapper@V?$Matrix@N$0?0$00$0A@$0?0$00@Eigen@@@3@@Eigen@@@Eigen@@@?$MatrixBase@V?$Matrix@N$0?0$0?0$0A@$0?0$0?0@Eigen@@@Eigen@@QEBA?BV?$GeneralProduct@V?$Matrix@N$0?0$0?0$0A@$0?0$0?0@Eigen@@V?$MatrixWrapper@$$CBV?$CwiseUnaryOp@U?$scalar_exp_op@N@internal@Eigen@@$$CBV?$ArrayWrapper@V?$Matrix@N$0?0$00$0A@$0?0$00@Eigen@@@3@@Eigen@@@2@$03@1@AEBV?$MatrixBase@V?$MatrixWrapper@$$CBV?$CwiseUnaryOp@U?$scalar_exp_op@N@internal@Eigen@@$$CBV?$ArrayWrapper@V?$Matrix@N$0?0$00$0A@$0?0$00@Eigen@@@3@@Eigen@@@Eigen@@@1@@Z DD 020601H
	DD	030023206H
xdata	ENDS
;	COMDAT xdata
xdata	SEGMENT
$ip2state$??$?0V?$GeneralProduct@V?$Matrix@N$0?0$0?0$0A@$0?0$0?0@Eigen@@V?$MatrixWrapper@$$CBV?$CwiseUnaryOp@U?$scalar_exp_op@N@internal@Eigen@@$$CBV?$ArrayWrapper@V?$Matrix@N$0?0$00$0A@$0?0$00@Eigen@@@3@@Eigen@@@2@$03@Eigen@@@?$Matrix@N$0?0$00$0A@$0?0$00@Eigen@@QEAA@AEBV?$MatrixBase@V?$GeneralProduct@V?$Matrix@N$0?0$0?0$0A@$0?0$0?0@Eigen@@V?$MatrixWrapper@$$CBV?$CwiseUnaryOp@U?$scalar_exp_op@N@internal@Eigen@@$$CBV?$ArrayWrapper@V?$Matrix@N$0?0$00$0A@$0?0$00@Eigen@@@3@@Eigen@@@2@$03@Eigen@@@1@@Z DD imagerel ??$?0V?$GeneralProduct@V?$Matrix@N$0?0$0?0$0A@$0?0$0?0@Eigen@@V?$MatrixWrapper@$$CBV?$CwiseUnaryOp@U?$scalar_exp_op@N@internal@Eigen@@$$CBV?$ArrayWrapper@V?$Matrix@N$0?0$00$0A@$0?0$00@Eigen@@@3@@Eigen@@@2@$03@Eigen@@@?$Matrix@N$0?0$00$0A@$0?0$00@Eigen@@QEAA@AEBV?$MatrixBase@V?$GeneralProduct@V?$Matrix@N$0?0$0?0$0A@$0?0$0?0@Eigen@@V?$MatrixWrapper@$$CBV?$CwiseUnaryOp@U?$scalar_exp_op@N@internal@Eigen@@$$CBV?$ArrayWrapper@V?$Matrix@N$0?0$00$0A@$0?0$00@Eigen@@@3@@Eigen@@@2@$03@Eigen@@@1@@Z
	DD	0ffffffffH
	DD	imagerel ??$?0V?$GeneralProduct@V?$Matrix@N$0?0$0?0$0A@$0?0$0?0@Eigen@@V?$MatrixWrapper@$$CBV?$CwiseUnaryOp@U?$scalar_exp_op@N@internal@Eigen@@$$CBV?$ArrayWrapper@V?$Matrix@N$0?0$00$0A@$0?0$00@Eigen@@@3@@Eigen@@@2@$03@Eigen@@@?$Matrix@N$0?0$00$0A@$0?0$00@Eigen@@QEAA@AEBV?$MatrixBase@V?$GeneralProduct@V?$Matrix@N$0?0$0?0$0A@$0?0$0?0@Eigen@@V?$MatrixWrapper@$$CBV?$CwiseUnaryOp@U?$scalar_exp_op@N@internal@Eigen@@$$CBV?$ArrayWrapper@V?$Matrix@N$0?0$00$0A@$0?0$00@Eigen@@@3@@Eigen@@@2@$03@Eigen@@@1@@Z+118
	DD	00H
	DD	imagerel ??$?0V?$GeneralProduct@V?$Matrix@N$0?0$0?0$0A@$0?0$0?0@Eigen@@V?$MatrixWrapper@$$CBV?$CwiseUnaryOp@U?$scalar_exp_op@N@internal@Eigen@@$$CBV?$ArrayWrapper@V?$Matrix@N$0?0$00$0A@$0?0$00@Eigen@@@3@@Eigen@@@2@$03@Eigen@@@?$Matrix@N$0?0$00$0A@$0?0$00@Eigen@@QEAA@AEBV?$MatrixBase@V?$GeneralProduct@V?$Matrix@N$0?0$0?0$0A@$0?0$0?0@Eigen@@V?$MatrixWrapper@$$CBV?$CwiseUnaryOp@U?$scalar_exp_op@N@internal@Eigen@@$$CBV?$ArrayWrapper@V?$Matrix@N$0?0$00$0A@$0?0$00@Eigen@@@3@@Eigen@@@2@$03@Eigen@@@1@@Z+264
	DD	0ffffffffH
xdata	ENDS
;	COMDAT xdata
xdata	SEGMENT
$stateUnwindMap$??$?0V?$GeneralProduct@V?$Matrix@N$0?0$0?0$0A@$0?0$0?0@Eigen@@V?$MatrixWrapper@$$CBV?$CwiseUnaryOp@U?$scalar_exp_op@N@internal@Eigen@@$$CBV?$ArrayWrapper@V?$Matrix@N$0?0$00$0A@$0?0$00@Eigen@@@3@@Eigen@@@2@$03@Eigen@@@?$Matrix@N$0?0$00$0A@$0?0$00@Eigen@@QEAA@AEBV?$MatrixBase@V?$GeneralProduct@V?$Matrix@N$0?0$0?0$0A@$0?0$0?0@Eigen@@V?$MatrixWrapper@$$CBV?$CwiseUnaryOp@U?$scalar_exp_op@N@internal@Eigen@@$$CBV?$ArrayWrapper@V?$Matrix@N$0?0$00$0A@$0?0$00@Eigen@@@3@@Eigen@@@2@$03@Eigen@@@1@@Z DD 0ffffffffH
	DD	imagerel ?dtor$0@?0???$?0V?$GeneralProduct@V?$Matrix@N$0?0$0?0$0A@$0?0$0?0@Eigen@@V?$MatrixWrapper@$$CBV?$CwiseUnaryOp@U?$scalar_exp_op@N@internal@Eigen@@$$CBV?$ArrayWrapper@V?$Matrix@N$0?0$00$0A@$0?0$00@Eigen@@@3@@Eigen@@@2@$03@Eigen@@@?$Matrix@N$0?0$00$0A@$0?0$00@Eigen@@QEAA@AEBV?$MatrixBase@V?$GeneralProduct@V?$Matrix@N$0?0$0?0$0A@$0?0$0?0@Eigen@@V?$MatrixWrapper@$$CBV?$CwiseUnaryOp@U?$scalar_exp_op@N@internal@Eigen@@$$CBV?$ArrayWrapper@V?$Matrix@N$0?0$00$0A@$0?0$00@Eigen@@@3@@Eigen@@@2@$03@Eigen@@@1@@Z@4HA
xdata	ENDS
;	COMDAT CONST
CONST	SEGMENT
$cppxdata$??$?0V?$GeneralProduct@V?$Matrix@N$0?0$0?0$0A@$0?0$0?0@Eigen@@V?$MatrixWrapper@$$CBV?$CwiseUnaryOp@U?$scalar_exp_op@N@internal@Eigen@@$$CBV?$ArrayWrapper@V?$Matrix@N$0?0$00$0A@$0?0$00@Eigen@@@3@@Eigen@@@2@$03@Eigen@@@?$Matrix@N$0?0$00$0A@$0?0$00@Eigen@@QEAA@AEBV?$MatrixBase@V?$GeneralProduct@V?$Matrix@N$0?0$0?0$0A@$0?0$0?0@Eigen@@V?$MatrixWrapper@$$CBV?$CwiseUnaryOp@U?$scalar_exp_op@N@internal@Eigen@@$$CBV?$ArrayWrapper@V?$Matrix@N$0?0$00$0A@$0?0$00@Eigen@@@3@@Eigen@@@2@$03@Eigen@@@1@@Z DD 019930522H
	DD	01H
	DD	imagerel $stateUnwindMap$??$?0V?$GeneralProduct@V?$Matrix@N$0?0$0?0$0A@$0?0$0?0@Eigen@@V?$MatrixWrapper@$$CBV?$CwiseUnaryOp@U?$scalar_exp_op@N@internal@Eigen@@$$CBV?$ArrayWrapper@V?$Matrix@N$0?0$00$0A@$0?0$00@Eigen@@@3@@Eigen@@@2@$03@Eigen@@@?$Matrix@N$0?0$00$0A@$0?0$00@Eigen@@QEAA@AEBV?$MatrixBase@V?$GeneralProduct@V?$Matrix@N$0?0$0?0$0A@$0?0$0?0@Eigen@@V?$MatrixWrapper@$$CBV?$CwiseUnaryOp@U?$scalar_exp_op@N@internal@Eigen@@$$CBV?$ArrayWrapper@V?$Matrix@N$0?0$00$0A@$0?0$00@Eigen@@@3@@Eigen@@@2@$03@Eigen@@@1@@Z
	DD	00H
	DD	00H
	DD	03H
	DD	imagerel $ip2state$??$?0V?$GeneralProduct@V?$Matrix@N$0?0$0?0$0A@$0?0$0?0@Eigen@@V?$MatrixWrapper@$$CBV?$CwiseUnaryOp@U?$scalar_exp_op@N@internal@Eigen@@$$CBV?$ArrayWrapper@V?$Matrix@N$0?0$00$0A@$0?0$00@Eigen@@@3@@Eigen@@@2@$03@Eigen@@@?$Matrix@N$0?0$00$0A@$0?0$00@Eigen@@QEAA@AEBV?$MatrixBase@V?$GeneralProduct@V?$Matrix@N$0?0$0?0$0A@$0?0$0?0@Eigen@@V?$MatrixWrapper@$$CBV?$CwiseUnaryOp@U?$scalar_exp_op@N@internal@Eigen@@$$CBV?$ArrayWrapper@V?$Matrix@N$0?0$00$0A@$0?0$00@Eigen@@@3@@Eigen@@@2@$03@Eigen@@@1@@Z
	DD	020H
	DD	00H
	DD	01H
CONST	ENDS
;	COMDAT xdata
xdata	SEGMENT
$unwind$??$?0V?$GeneralProduct@V?$Matrix@N$0?0$0?0$0A@$0?0$0?0@Eigen@@V?$MatrixWrapper@$$CBV?$CwiseUnaryOp@U?$scalar_exp_op@N@internal@Eigen@@$$CBV?$ArrayWrapper@V?$Matrix@N$0?0$00$0A@$0?0$00@Eigen@@@3@@Eigen@@@2@$03@Eigen@@@?$Matrix@N$0?0$00$0A@$0?0$00@Eigen@@QEAA@AEBV?$MatrixBase@V?$GeneralProduct@V?$Matrix@N$0?0$0?0$0A@$0?0$0?0@Eigen@@V?$MatrixWrapper@$$CBV?$CwiseUnaryOp@U?$scalar_exp_op@N@internal@Eigen@@$$CBV?$ArrayWrapper@V?$Matrix@N$0?0$00$0A@$0?0$00@Eigen@@@3@@Eigen@@@2@$03@Eigen@@@1@@Z DD 082311H
	DD	0b7423H
	DD	0a641eH
	DD	093419H
	DD	0e007520bH
	DD	imagerel __CxxFrameHandler3
	DD	imagerel $cppxdata$??$?0V?$GeneralProduct@V?$Matrix@N$0?0$0?0$0A@$0?0$0?0@Eigen@@V?$MatrixWrapper@$$CBV?$CwiseUnaryOp@U?$scalar_exp_op@N@internal@Eigen@@$$CBV?$ArrayWrapper@V?$Matrix@N$0?0$00$0A@$0?0$00@Eigen@@@3@@Eigen@@@2@$03@Eigen@@@?$Matrix@N$0?0$00$0A@$0?0$00@Eigen@@QEAA@AEBV?$MatrixBase@V?$GeneralProduct@V?$Matrix@N$0?0$0?0$0A@$0?0$0?0@Eigen@@V?$MatrixWrapper@$$CBV?$CwiseUnaryOp@U?$scalar_exp_op@N@internal@Eigen@@$$CBV?$ArrayWrapper@V?$Matrix@N$0?0$00$0A@$0?0$00@Eigen@@@3@@Eigen@@@2@$03@Eigen@@@1@@Z
xdata	ENDS
;	COMDAT xdata
xdata	SEGMENT
$unwind$??$?4V?$CwiseUnaryOp@U?$scalar_opposite_op@N@internal@Eigen@@$$CBV?$ReturnByValue@U?$solve_retval_base@V?$PartialPivLU@V?$Matrix@N$0?0$0?0$0A@$0?0$0?0@Eigen@@@Eigen@@V?$Matrix@N$0?0$00$0A@$0?0$00@2@@internal@Eigen@@@3@@Eigen@@@?$Matrix@N$0?0$00$0A@$0?0$00@Eigen@@QEAAAEAV01@AEBV?$MatrixBase@V?$CwiseUnaryOp@U?$scalar_opposite_op@N@internal@Eigen@@$$CBV?$ReturnByValue@U?$solve_retval_base@V?$PartialPivLU@V?$Matrix@N$0?0$0?0$0A@$0?0$0?0@Eigen@@@Eigen@@V?$Matrix@N$0?0$00$0A@$0?0$00@2@@internal@Eigen@@@3@@Eigen@@@1@@Z DD 062a01H
	DD	0a742aH
	DD	060043208H
	DD	030025003H
xdata	ENDS
;	COMDAT xdata
xdata	SEGMENT
$unwind$??$?YV?$Block@V?$Matrix@N$0?0$00$0A@$0?0$00@Eigen@@$0?0$0?0$0A@@Eigen@@@?$MatrixBase@V?$Matrix@N$0?0$00$0A@$0?0$00@Eigen@@@Eigen@@QEAAAEAV?$Matrix@N$0?0$00$0A@$0?0$00@1@AEBV?$MatrixBase@V?$Block@V?$Matrix@N$0?0$00$0A@$0?0$00@Eigen@@$0?0$0?0$0A@@Eigen@@@1@@Z DD 021519H
	DD	03002d206H
	DD	imagerel __GSHandlerCheck
	DD	060H
xdata	ENDS
;	COMDAT xdata
xdata	SEGMENT
$unwind$??$?4V?$Matrix@N$0?0$00$0A@$0?0$00@Eigen@@@?$MatrixBase@V?$Block@V?$Matrix@N$0?0$00$0A@$0?0$00@Eigen@@$0?0$0?0$0A@@Eigen@@@Eigen@@QEAAAEAV?$Block@V?$Matrix@N$0?0$00$0A@$0?0$00@Eigen@@$0?0$0?0$0A@@1@AEBV?$DenseBase@V?$Matrix@N$0?0$00$0A@$0?0$00@Eigen@@@1@@Z DD 040a01H
	DD	06340aH
	DD	07006320aH
xdata	ENDS
;	COMDAT xdata
xdata	SEGMENT
$unwind$??$?4V?$Matrix@N$0?0$0?0$0A@$0?0$0?0@Eigen@@@?$MatrixBase@V?$Block@V?$Matrix@N$0?0$0?0$0A@$0?0$0?0@Eigen@@$0?0$0?0$0A@@Eigen@@@Eigen@@QEAAAEAV?$Block@V?$Matrix@N$0?0$0?0$0A@$0?0$0?0@Eigen@@$0?0$0?0$0A@@1@AEBV?$DenseBase@V?$Matrix@N$0?0$0?0$0A@$0?0$0?0@Eigen@@@1@@Z DD 040a01H
	DD	06340aH
	DD	07006320aH
xdata	ENDS
;	COMDAT xdata
xdata	SEGMENT
$unwind$??$?4V?$Transpose@V?$Matrix@N$0?0$0?0$0A@$0?0$0?0@Eigen@@@Eigen@@@?$MatrixBase@V?$Block@V?$Matrix@N$0?0$0?0$0A@$0?0$0?0@Eigen@@$0?0$0?0$0A@@Eigen@@@Eigen@@QEAAAEAV?$Block@V?$Matrix@N$0?0$0?0$0A@$0?0$0?0@Eigen@@$0?0$0?0$0A@@1@AEBV?$DenseBase@V?$Transpose@V?$Matrix@N$0?0$0?0$0A@$0?0$0?0@Eigen@@@Eigen@@@1@@Z DD 040a01H
	DD	06340aH
	DD	07006320aH
xdata	ENDS
;	COMDAT xdata
xdata	SEGMENT
$ip2state$??$?0V?$Matrix@N$0?0$00$0A@$0?0$00@Eigen@@@?$Matrix@N$0?0$0?0$0A@$0?0$0?0@Eigen@@QEAA@AEBV?$MatrixBase@V?$Matrix@N$0?0$00$0A@$0?0$00@Eigen@@@1@@Z DD imagerel ??$?0V?$Matrix@N$0?0$00$0A@$0?0$00@Eigen@@@?$Matrix@N$0?0$0?0$0A@$0?0$0?0@Eigen@@QEAA@AEBV?$MatrixBase@V?$Matrix@N$0?0$00$0A@$0?0$00@Eigen@@@1@@Z
	DD	0ffffffffH
	DD	imagerel ??$?0V?$Matrix@N$0?0$00$0A@$0?0$00@Eigen@@@?$Matrix@N$0?0$0?0$0A@$0?0$0?0@Eigen@@QEAA@AEBV?$MatrixBase@V?$Matrix@N$0?0$00$0A@$0?0$00@Eigen@@@1@@Z+123
	DD	00H
	DD	imagerel ??$?0V?$Matrix@N$0?0$00$0A@$0?0$00@Eigen@@@?$Matrix@N$0?0$0?0$0A@$0?0$0?0@Eigen@@QEAA@AEBV?$MatrixBase@V?$Matrix@N$0?0$00$0A@$0?0$00@Eigen@@@1@@Z+371
	DD	0ffffffffH
xdata	ENDS
;	COMDAT xdata
xdata	SEGMENT
$stateUnwindMap$??$?0V?$Matrix@N$0?0$00$0A@$0?0$00@Eigen@@@?$Matrix@N$0?0$0?0$0A@$0?0$0?0@Eigen@@QEAA@AEBV?$MatrixBase@V?$Matrix@N$0?0$00$0A@$0?0$00@Eigen@@@1@@Z DD 0ffffffffH
	DD	imagerel ?dtor$0@?0???$?0V?$Matrix@N$0?0$00$0A@$0?0$00@Eigen@@@?$Matrix@N$0?0$0?0$0A@$0?0$0?0@Eigen@@QEAA@AEBV?$MatrixBase@V?$Matrix@N$0?0$00$0A@$0?0$00@Eigen@@@1@@Z@4HA
xdata	ENDS
;	COMDAT CONST
CONST	SEGMENT
$cppxdata$??$?0V?$Matrix@N$0?0$00$0A@$0?0$00@Eigen@@@?$Matrix@N$0?0$0?0$0A@$0?0$0?0@Eigen@@QEAA@AEBV?$MatrixBase@V?$Matrix@N$0?0$00$0A@$0?0$00@Eigen@@@1@@Z DD 019930522H
	DD	01H
	DD	imagerel $stateUnwindMap$??$?0V?$Matrix@N$0?0$00$0A@$0?0$00@Eigen@@@?$Matrix@N$0?0$0?0$0A@$0?0$0?0@Eigen@@QEAA@AEBV?$MatrixBase@V?$Matrix@N$0?0$00$0A@$0?0$00@Eigen@@@1@@Z
	DD	00H
	DD	00H
	DD	03H
	DD	imagerel $ip2state$??$?0V?$Matrix@N$0?0$00$0A@$0?0$00@Eigen@@@?$Matrix@N$0?0$0?0$0A@$0?0$0?0@Eigen@@QEAA@AEBV?$MatrixBase@V?$Matrix@N$0?0$00$0A@$0?0$00@Eigen@@@1@@Z
	DD	020H
	DD	00H
	DD	01H
CONST	ENDS
;	COMDAT xdata
xdata	SEGMENT
$unwind$??$?0V?$Matrix@N$0?0$00$0A@$0?0$00@Eigen@@@?$Matrix@N$0?0$0?0$0A@$0?0$0?0@Eigen@@QEAA@AEBV?$MatrixBase@V?$Matrix@N$0?0$00$0A@$0?0$00@Eigen@@@1@@Z DD 081c11H
	DD	0d541cH
	DD	0c3417H
	DD	0e0055209H
	DD	060027003H
	DD	imagerel __CxxFrameHandler3
	DD	imagerel $cppxdata$??$?0V?$Matrix@N$0?0$00$0A@$0?0$00@Eigen@@@?$Matrix@N$0?0$0?0$0A@$0?0$0?0@Eigen@@QEAA@AEBV?$MatrixBase@V?$Matrix@N$0?0$00$0A@$0?0$00@Eigen@@@1@@Z
xdata	ENDS
;	COMDAT xdata
xdata	SEGMENT
$unwind$??0?$GeneralProduct@V?$Matrix@N$0?0$0?0$0A@$0?0$0?0@Eigen@@V?$MatrixWrapper@$$CBV?$CwiseUnaryOp@U?$scalar_exp_op@N@internal@Eigen@@$$CBV?$ArrayWrapper@V?$Matrix@N$0?0$00$0A@$0?0$00@Eigen@@@3@@Eigen@@@2@$03@Eigen@@QEAA@AEBV?$Matrix@N$0?0$0?0$0A@$0?0$0?0@1@AEBV?$MatrixWrapper@$$CBV?$CwiseUnaryOp@U?$scalar_exp_op@N@internal@Eigen@@$$CBV?$ArrayWrapper@V?$Matrix@N$0?0$00$0A@$0?0$00@Eigen@@@3@@Eigen@@@1@@Z DD 020601H
	DD	030023206H
xdata	ENDS
;	COMDAT xdata
xdata	SEGMENT
$unwind$??4?$SelfCwiseBinaryOp@U?$scalar_sum_op@N@internal@Eigen@@V?$Matrix@N$0?0$00$0A@$0?0$00@3@V?$Block@V?$Matrix@N$0?0$00$0A@$0?0$00@Eigen@@$0?0$0?0$0A@@3@@Eigen@@QEAAAEAV01@AEBV?$Block@V?$Matrix@N$0?0$00$0A@$0?0$00@Eigen@@$0?0$0?0$0A@@1@@Z DD 021519H
	DD	030029206H
	DD	imagerel __GSHandlerCheck
	DD	048H
xdata	ENDS
;	COMDAT xdata
xdata	SEGMENT
$unwind$?run@?$assign_selector@V?$Block@V?$Matrix@N$0?0$00$0A@$0?0$00@Eigen@@$0?0$0?0$0A@@Eigen@@V?$Matrix@N$0?0$00$0A@$0?0$00@2@$0A@$0A@@internal@Eigen@@SAAEAV?$Block@V?$Matrix@N$0?0$00$0A@$0?0$00@Eigen@@$0?0$0?0$0A@@3@AEAV43@AEBV?$Matrix@N$0?0$00$0A@$0?0$00@3@@Z DD 040a01H
	DD	06340aH
	DD	07006320aH
xdata	ENDS
;	COMDAT xdata
xdata	SEGMENT
$unwind$?run@?$assign_selector@V?$Block@V?$Matrix@N$0?0$0?0$0A@$0?0$0?0@Eigen@@$0?0$0?0$0A@@Eigen@@V?$Matrix@N$0?0$0?0$0A@$0?0$0?0@2@$0A@$0A@@internal@Eigen@@SAAEAV?$Block@V?$Matrix@N$0?0$0?0$0A@$0?0$0?0@Eigen@@$0?0$0?0$0A@@3@AEAV43@AEBV?$Matrix@N$0?0$0?0$0A@$0?0$0?0@3@@Z DD 040a01H
	DD	06340aH
	DD	07006320aH
xdata	ENDS
;	COMDAT xdata
xdata	SEGMENT
$unwind$?run@?$assign_selector@V?$Block@V?$Matrix@N$0?0$0?0$0A@$0?0$0?0@Eigen@@$0?0$0?0$0A@@Eigen@@V?$Transpose@V?$Matrix@N$0?0$0?0$0A@$0?0$0?0@Eigen@@@2@$0A@$0A@@internal@Eigen@@SAAEAV?$Block@V?$Matrix@N$0?0$0?0$0A@$0?0$0?0@Eigen@@$0?0$0?0$0A@@3@AEAV43@AEBV?$Transpose@V?$Matrix@N$0?0$0?0$0A@$0?0$0?0@Eigen@@@3@@Z DD 040a01H
	DD	06340aH
	DD	07006320aH
xdata	ENDS
;	COMDAT xdata
xdata	SEGMENT
$unwind$??0?$ProductBase@V?$GeneralProduct@V?$Matrix@N$0?0$0?0$0A@$0?0$0?0@Eigen@@V?$MatrixWrapper@$$CBV?$CwiseUnaryOp@U?$scalar_exp_op@N@internal@Eigen@@$$CBV?$ArrayWrapper@V?$Matrix@N$0?0$00$0A@$0?0$00@Eigen@@@3@@Eigen@@@2@$03@Eigen@@V?$Matrix@N$0?0$0?0$0A@$0?0$0?0@2@V?$MatrixWrapper@$$CBV?$CwiseUnaryOp@U?$scalar_exp_op@N@internal@Eigen@@$$CBV?$ArrayWrapper@V?$Matrix@N$0?0$00$0A@$0?0$00@Eigen@@@3@@Eigen@@@2@@Eigen@@QEAA@AEBV?$Matrix@N$0?0$0?0$0A@$0?0$0?0@1@AEBV?$MatrixWrapper@$$CBV?$CwiseUnaryOp@U?$scalar_exp_op@N@internal@Eigen@@$$CBV?$ArrayWrapper@V?$Matrix@N$0?0$00$0A@$0?0$00@Eigen@@@3@@Eigen@@@1@@Z DD 020601H
	DD	030023206H
xdata	ENDS
;	COMDAT xdata
xdata	SEGMENT
$unwind$??$_set_noalias@V?$GeneralProduct@V?$Matrix@N$0?0$0?0$0A@$0?0$0?0@Eigen@@V?$MatrixWrapper@$$CBV?$CwiseUnaryOp@U?$scalar_exp_op@N@internal@Eigen@@$$CBV?$ArrayWrapper@$$CBV?$Matrix@N$0?0$00$0A@$0?0$00@Eigen@@@3@@Eigen@@@2@$03@Eigen@@@?$PlainObjectBase@V?$Matrix@N$0?0$00$0A@$0?0$00@Eigen@@@Eigen@@IEAAAEAV?$Matrix@N$0?0$00$0A@$0?0$00@1@AEBV?$DenseBase@V?$GeneralProduct@V?$Matrix@N$0?0$0?0$0A@$0?0$0?0@Eigen@@V?$MatrixWrapper@$$CBV?$CwiseUnaryOp@U?$scalar_exp_op@N@internal@Eigen@@$$CBV?$ArrayWrapper@$$CBV?$Matrix@N$0?0$00$0A@$0?0$00@Eigen@@@3@@Eigen@@@2@$03@Eigen@@@1@@Z DD 081401H
	DD	086414H
	DD	075414H
	DD	063414H
	DD	070103214H
xdata	ENDS
;	COMDAT xdata
xdata	SEGMENT
$unwind$??$_set_noalias@V?$GeneralProduct@V?$Matrix@N$0?0$0?0$0A@$0?0$0?0@Eigen@@V?$MatrixWrapper@$$CBV?$CwiseUnaryOp@U?$scalar_exp_op@N@internal@Eigen@@$$CBV?$ArrayWrapper@V?$Matrix@N$0?0$00$0A@$0?0$00@Eigen@@@3@@Eigen@@@2@$03@Eigen@@@?$PlainObjectBase@V?$Matrix@N$0?0$00$0A@$0?0$00@Eigen@@@Eigen@@IEAAAEAV?$Matrix@N$0?0$00$0A@$0?0$00@1@AEBV?$DenseBase@V?$GeneralProduct@V?$Matrix@N$0?0$0?0$0A@$0?0$0?0@Eigen@@V?$MatrixWrapper@$$CBV?$CwiseUnaryOp@U?$scalar_exp_op@N@internal@Eigen@@$$CBV?$ArrayWrapper@V?$Matrix@N$0?0$00$0A@$0?0$00@Eigen@@@3@@Eigen@@@2@$03@Eigen@@@1@@Z DD 081401H
	DD	086414H
	DD	075414H
	DD	063414H
	DD	070103214H
xdata	ENDS
;	COMDAT xdata
xdata	SEGMENT
$unwind$??$_set@V?$CwiseUnaryOp@U?$scalar_opposite_op@N@internal@Eigen@@$$CBV?$ReturnByValue@U?$solve_retval_base@V?$PartialPivLU@V?$Matrix@N$0?0$0?0$0A@$0?0$0?0@Eigen@@@Eigen@@V?$Matrix@N$0?0$00$0A@$0?0$00@2@@internal@Eigen@@@3@@Eigen@@@?$PlainObjectBase@V?$Matrix@N$0?0$00$0A@$0?0$00@Eigen@@@Eigen@@IEAAAEAV?$Matrix@N$0?0$00$0A@$0?0$00@1@AEBV?$DenseBase@V?$CwiseUnaryOp@U?$scalar_opposite_op@N@internal@Eigen@@$$CBV?$ReturnByValue@U?$solve_retval_base@V?$PartialPivLU@V?$Matrix@N$0?0$0?0$0A@$0?0$0?0@Eigen@@@Eigen@@V?$Matrix@N$0?0$00$0A@$0?0$00@2@@internal@Eigen@@@3@@Eigen@@@1@@Z DD 062a01H
	DD	0a742aH
	DD	060043208H
	DD	030025003H
xdata	ENDS
;	COMDAT xdata
xdata	SEGMENT
$unwind$??$_set_noalias@V?$Matrix@N$0?0$00$0A@$0?0$00@Eigen@@@?$PlainObjectBase@V?$Matrix@N$0?0$0?0$0A@$0?0$0?0@Eigen@@@Eigen@@IEAAAEAV?$Matrix@N$0?0$0?0$0A@$0?0$0?0@1@AEBV?$DenseBase@V?$Matrix@N$0?0$00$0A@$0?0$00@Eigen@@@1@@Z DD 060d01H
	DD	0a340dH
	DD	0e009320dH
	DD	060067007H
xdata	ENDS
;	COMDAT xdata
xdata	SEGMENT
$unwind$??$?4V?$Block@V?$Matrix@N$0?0$00$0A@$0?0$00@Eigen@@$0?0$0?0$0A@@Eigen@@@?$MatrixBase@V?$SelfCwiseBinaryOp@U?$scalar_sum_op@N@internal@Eigen@@V?$Matrix@N$0?0$00$0A@$0?0$00@3@V?$Block@V?$Matrix@N$0?0$00$0A@$0?0$00@Eigen@@$0?0$0?0$0A@@3@@Eigen@@@Eigen@@QEAAAEAV?$SelfCwiseBinaryOp@U?$scalar_sum_op@N@internal@Eigen@@V?$Matrix@N$0?0$00$0A@$0?0$00@3@V?$Block@V?$Matrix@N$0?0$00$0A@$0?0$00@Eigen@@$0?0$0?0$0A@@3@@1@AEBV?$DenseBase@V?$Block@V?$Matrix@N$0?0$00$0A@$0?0$00@Eigen@@$0?0$0?0$0A@@Eigen@@@1@@Z DD 040a01H
	DD	06340aH
	DD	07006320aH
xdata	ENDS
;	COMDAT xdata
xdata	SEGMENT
$unwind$??$lazyAssign@V?$Matrix@N$0?0$00$0A@$0?0$00@Eigen@@@?$DenseBase@V?$Block@V?$Matrix@N$0?0$00$0A@$0?0$00@Eigen@@$0?0$0?0$0A@@Eigen@@@Eigen@@QEAAAEAV?$Block@V?$Matrix@N$0?0$00$0A@$0?0$00@Eigen@@$0?0$0?0$0A@@1@AEBV?$DenseBase@V?$Matrix@N$0?0$00$0A@$0?0$00@Eigen@@@1@@Z DD 040a01H
	DD	06340aH
	DD	07006320aH
xdata	ENDS
;	COMDAT xdata
xdata	SEGMENT
$unwind$??$lazyAssign@V?$Matrix@N$0?0$0?0$0A@$0?0$0?0@Eigen@@@?$DenseBase@V?$Block@V?$Matrix@N$0?0$0?0$0A@$0?0$0?0@Eigen@@$0?0$0?0$0A@@Eigen@@@Eigen@@QEAAAEAV?$Block@V?$Matrix@N$0?0$0?0$0A@$0?0$0?0@Eigen@@$0?0$0?0$0A@@1@AEBV?$DenseBase@V?$Matrix@N$0?0$0?0$0A@$0?0$0?0@Eigen@@@1@@Z DD 040a01H
	DD	06340aH
	DD	07006320aH
xdata	ENDS
;	COMDAT xdata
xdata	SEGMENT
$unwind$??$lazyAssign@V?$Transpose@V?$Matrix@N$0?0$0?0$0A@$0?0$0?0@Eigen@@@Eigen@@@?$DenseBase@V?$Block@V?$Matrix@N$0?0$0?0$0A@$0?0$0?0@Eigen@@$0?0$0?0$0A@@Eigen@@@Eigen@@QEAAAEAV?$Block@V?$Matrix@N$0?0$0?0$0A@$0?0$0?0@Eigen@@$0?0$0?0$0A@@1@AEBV?$DenseBase@V?$Transpose@V?$Matrix@N$0?0$0?0$0A@$0?0$0?0@Eigen@@@Eigen@@@1@@Z DD 040a01H
	DD	06340aH
	DD	07006320aH
xdata	ENDS
;	COMDAT xdata
xdata	SEGMENT
$unwind$?run@?$assign_selector@V?$Matrix@N$0?0$00$0A@$0?0$00@Eigen@@V?$GeneralProduct@V?$Matrix@N$0?0$0?0$0A@$0?0$0?0@Eigen@@V?$MatrixWrapper@$$CBV?$CwiseUnaryOp@U?$scalar_exp_op@N@internal@Eigen@@$$CBV?$ArrayWrapper@$$CBV?$Matrix@N$0?0$00$0A@$0?0$00@Eigen@@@3@@Eigen@@@2@$03@2@$0A@$0A@@internal@Eigen@@SAAEAV?$Matrix@N$0?0$00$0A@$0?0$00@3@AEAV43@AEBV?$GeneralProduct@V?$Matrix@N$0?0$0?0$0A@$0?0$0?0@Eigen@@V?$MatrixWrapper@$$CBV?$CwiseUnaryOp@U?$scalar_exp_op@N@internal@Eigen@@$$CBV?$ArrayWrapper@$$CBV?$Matrix@N$0?0$00$0A@$0?0$00@Eigen@@@3@@Eigen@@@2@$03@3@@Z DD 081401H
	DD	086414H
	DD	075414H
	DD	063414H
	DD	070103214H
xdata	ENDS
;	COMDAT xdata
xdata	SEGMENT
$unwind$?run@?$assign_selector@V?$Matrix@N$0?0$00$0A@$0?0$00@Eigen@@V?$GeneralProduct@V?$Matrix@N$0?0$0?0$0A@$0?0$0?0@Eigen@@V?$MatrixWrapper@$$CBV?$CwiseUnaryOp@U?$scalar_exp_op@N@internal@Eigen@@$$CBV?$ArrayWrapper@V?$Matrix@N$0?0$00$0A@$0?0$00@Eigen@@@3@@Eigen@@@2@$03@2@$0A@$0A@@internal@Eigen@@SAAEAV?$Matrix@N$0?0$00$0A@$0?0$00@3@AEAV43@AEBV?$GeneralProduct@V?$Matrix@N$0?0$0?0$0A@$0?0$0?0@Eigen@@V?$MatrixWrapper@$$CBV?$CwiseUnaryOp@U?$scalar_exp_op@N@internal@Eigen@@$$CBV?$ArrayWrapper@V?$Matrix@N$0?0$00$0A@$0?0$00@Eigen@@@3@@Eigen@@@2@$03@3@@Z DD 081401H
	DD	086414H
	DD	075414H
	DD	063414H
	DD	070103214H
xdata	ENDS
;	COMDAT xdata
xdata	SEGMENT
$unwind$?run@?$assign_selector@V?$Matrix@N$0?0$0?0$0A@$0?0$0?0@Eigen@@V?$Matrix@N$0?0$00$0A@$0?0$00@2@$0A@$0A@@internal@Eigen@@SAAEAV?$Matrix@N$0?0$0?0$0A@$0?0$0?0@3@AEAV43@AEBV?$Matrix@N$0?0$00$0A@$0?0$00@3@@Z DD 060d01H
	DD	0a340dH
	DD	0e009320dH
	DD	060067007H
xdata	ENDS
;	COMDAT xdata
xdata	SEGMENT
$unwind$?run@?$assign_selector@V?$SelfCwiseBinaryOp@U?$scalar_sum_op@N@internal@Eigen@@V?$Matrix@N$0?0$00$0A@$0?0$00@3@V?$Block@V?$Matrix@N$0?0$00$0A@$0?0$00@Eigen@@$0?0$0?0$0A@@3@@Eigen@@V?$Block@V?$Matrix@N$0?0$00$0A@$0?0$00@Eigen@@$0?0$0?0$0A@@2@$0A@$0A@@internal@Eigen@@SAAEAV?$SelfCwiseBinaryOp@U?$scalar_sum_op@N@internal@Eigen@@V?$Matrix@N$0?0$00$0A@$0?0$00@3@V?$Block@V?$Matrix@N$0?0$00$0A@$0?0$00@Eigen@@$0?0$0?0$0A@@3@@3@AEAV43@AEBV?$Block@V?$Matrix@N$0?0$00$0A@$0?0$00@Eigen@@$0?0$0?0$0A@@3@@Z DD 040a01H
	DD	06340aH
	DD	07006320aH
xdata	ENDS
;	COMDAT xdata
xdata	SEGMENT
$chain$1$?run@?$assign_impl@V?$Block@V?$Matrix@N$0?0$00$0A@$0?0$00@Eigen@@$0?0$0?0$0A@@Eigen@@V?$Matrix@N$0?0$00$0A@$0?0$00@2@$03$0A@$0A@@internal@Eigen@@SAXAEAV?$Block@V?$Matrix@N$0?0$00$0A@$0?0$00@Eigen@@$0?0$0?0$0A@@3@AEBV?$Matrix@N$0?0$00$0A@$0?0$00@3@@Z DD 021H
	DD	imagerel $LN746
	DD	imagerel $LN746+109
	DD	imagerel $unwind$?run@?$assign_impl@V?$Block@V?$Matrix@N$0?0$00$0A@$0?0$00@Eigen@@$0?0$0?0$0A@@Eigen@@V?$Matrix@N$0?0$00$0A@$0?0$00@2@$03$0A@$0A@@internal@Eigen@@SAXAEAV?$Block@V?$Matrix@N$0?0$00$0A@$0?0$00@Eigen@@$0?0$0?0$0A@@3@AEBV?$Matrix@N$0?0$00$0A@$0?0$00@3@@Z
xdata	ENDS
;	COMDAT xdata
xdata	SEGMENT
$chain$0$?run@?$assign_impl@V?$Block@V?$Matrix@N$0?0$00$0A@$0?0$00@Eigen@@$0?0$0?0$0A@@Eigen@@V?$Matrix@N$0?0$00$0A@$0?0$00@2@$03$0A@$0A@@internal@Eigen@@SAXAEAV?$Block@V?$Matrix@N$0?0$00$0A@$0?0$00@Eigen@@$0?0$0?0$0A@@3@AEBV?$Matrix@N$0?0$00$0A@$0?0$00@3@@Z DD 020521H
	DD	087405H
	DD	imagerel $LN746
	DD	imagerel $LN746+109
	DD	imagerel $unwind$?run@?$assign_impl@V?$Block@V?$Matrix@N$0?0$00$0A@$0?0$00@Eigen@@$0?0$0?0$0A@@Eigen@@V?$Matrix@N$0?0$00$0A@$0?0$00@2@$03$0A@$0A@@internal@Eigen@@SAXAEAV?$Block@V?$Matrix@N$0?0$00$0A@$0?0$00@Eigen@@$0?0$0?0$0A@@3@AEBV?$Matrix@N$0?0$00$0A@$0?0$00@3@@Z
xdata	ENDS
;	COMDAT xdata
xdata	SEGMENT
$unwind$?run@?$assign_impl@V?$Block@V?$Matrix@N$0?0$00$0A@$0?0$00@Eigen@@$0?0$0?0$0A@@Eigen@@V?$Matrix@N$0?0$00$0A@$0?0$00@2@$03$0A@$0A@@internal@Eigen@@SAXAEAV?$Block@V?$Matrix@N$0?0$00$0A@$0?0$00@Eigen@@$0?0$0?0$0A@@3@AEBV?$Matrix@N$0?0$00$0A@$0?0$00@3@@Z DD 021519H
	DD	030023206H
	DD	imagerel __GSHandlerCheck
	DD	010H
xdata	ENDS
;	COMDAT xdata
xdata	SEGMENT
$chain$2$?run@?$assign_impl@V?$Block@V?$Matrix@N$0?0$0?0$0A@$0?0$0?0@Eigen@@$0?0$0?0$0A@@Eigen@@V?$Matrix@N$0?0$0?0$0A@$0?0$0?0@2@$03$0A@$0A@@internal@Eigen@@SAXAEAV?$Block@V?$Matrix@N$0?0$0?0$0A@$0?0$0?0@Eigen@@$0?0$0?0$0A@@3@AEBV?$Matrix@N$0?0$0?0$0A@$0?0$0?0@3@@Z DD 021H
	DD	imagerel $LN746
	DD	imagerel $LN746+134
	DD	imagerel $unwind$?run@?$assign_impl@V?$Block@V?$Matrix@N$0?0$0?0$0A@$0?0$0?0@Eigen@@$0?0$0?0$0A@@Eigen@@V?$Matrix@N$0?0$0?0$0A@$0?0$0?0@2@$03$0A@$0A@@internal@Eigen@@SAXAEAV?$Block@V?$Matrix@N$0?0$0?0$0A@$0?0$0?0@Eigen@@$0?0$0?0$0A@@3@AEBV?$Matrix@N$0?0$0?0$0A@$0?0$0?0@3@@Z
xdata	ENDS
;	COMDAT xdata
xdata	SEGMENT
$chain$1$?run@?$assign_impl@V?$Block@V?$Matrix@N$0?0$0?0$0A@$0?0$0?0@Eigen@@$0?0$0?0$0A@@Eigen@@V?$Matrix@N$0?0$0?0$0A@$0?0$0?0@2@$03$0A@$0A@@internal@Eigen@@SAXAEAV?$Block@V?$Matrix@N$0?0$0?0$0A@$0?0$0?0@Eigen@@$0?0$0?0$0A@@3@AEBV?$Matrix@N$0?0$0?0$0A@$0?0$0?0@3@@Z DD 040a21H
	DD	0de40aH
	DD	0c7405H
	DD	imagerel $LN746
	DD	imagerel $LN746+134
	DD	imagerel $unwind$?run@?$assign_impl@V?$Block@V?$Matrix@N$0?0$0?0$0A@$0?0$0?0@Eigen@@$0?0$0?0$0A@@Eigen@@V?$Matrix@N$0?0$0?0$0A@$0?0$0?0@2@$03$0A@$0A@@internal@Eigen@@SAXAEAV?$Block@V?$Matrix@N$0?0$0?0$0A@$0?0$0?0@Eigen@@$0?0$0?0$0A@@3@AEBV?$Matrix@N$0?0$0?0$0A@$0?0$0?0@3@@Z
xdata	ENDS
;	COMDAT xdata
xdata	SEGMENT
$unwind$?run@?$assign_impl@V?$Block@V?$Matrix@N$0?0$0?0$0A@$0?0$0?0@Eigen@@$0?0$0?0$0A@@Eigen@@V?$Matrix@N$0?0$0?0$0A@$0?0$0?0@2@$03$0A@$0A@@internal@Eigen@@SAXAEAV?$Block@V?$Matrix@N$0?0$0?0$0A@$0?0$0?0@Eigen@@$0?0$0?0$0A@@3@AEBV?$Matrix@N$0?0$0?0$0A@$0?0$0?0@3@@Z DD 061b19H
	DD	0f008320cH
	DD	06004c006H
	DD	030025003H
	DD	imagerel __GSHandlerCheck
	DD	018H
xdata	ENDS
;	COMDAT xdata
xdata	SEGMENT
$chain$3$?run@?$assign_impl@V?$Block@V?$Matrix@N$0?0$0?0$0A@$0?0$0?0@Eigen@@$0?0$0?0$0A@@Eigen@@V?$Transpose@V?$Matrix@N$0?0$0?0$0A@$0?0$0?0@Eigen@@@2@$0A@$0A@$0A@@internal@Eigen@@SAXAEAV?$Block@V?$Matrix@N$0?0$0?0$0A@$0?0$0?0@Eigen@@$0?0$0?0$0A@@3@AEBV?$Transpose@V?$Matrix@N$0?0$0?0$0A@$0?0$0?0@Eigen@@@3@@Z DD 021H
	DD	imagerel $LN254
	DD	imagerel $LN254+35
	DD	imagerel $unwind$?run@?$assign_impl@V?$Block@V?$Matrix@N$0?0$0?0$0A@$0?0$0?0@Eigen@@$0?0$0?0$0A@@Eigen@@V?$Transpose@V?$Matrix@N$0?0$0?0$0A@$0?0$0?0@Eigen@@@2@$0A@$0A@$0A@@internal@Eigen@@SAXAEAV?$Block@V?$Matrix@N$0?0$0?0$0A@$0?0$0?0@Eigen@@$0?0$0?0$0A@@3@AEBV?$Transpose@V?$Matrix@N$0?0$0?0$0A@$0?0$0?0@Eigen@@@3@@Z
xdata	ENDS
;	COMDAT xdata
xdata	SEGMENT
$chain$2$?run@?$assign_impl@V?$Block@V?$Matrix@N$0?0$0?0$0A@$0?0$0?0@Eigen@@$0?0$0?0$0A@@Eigen@@V?$Transpose@V?$Matrix@N$0?0$0?0$0A@$0?0$0?0@Eigen@@@2@$0A@$0A@$0A@@internal@Eigen@@SAXAEAV?$Block@V?$Matrix@N$0?0$0?0$0A@$0?0$0?0@Eigen@@$0?0$0?0$0A@@3@AEBV?$Transpose@V?$Matrix@N$0?0$0?0$0A@$0?0$0?0@Eigen@@@3@@Z DD 060f21H
	DD	05640fH
	DD	04540aH
	DD	033405H
	DD	imagerel $LN254
	DD	imagerel $LN254+35
	DD	imagerel $unwind$?run@?$assign_impl@V?$Block@V?$Matrix@N$0?0$0?0$0A@$0?0$0?0@Eigen@@$0?0$0?0$0A@@Eigen@@V?$Transpose@V?$Matrix@N$0?0$0?0$0A@$0?0$0?0@Eigen@@@2@$0A@$0A@$0A@@internal@Eigen@@SAXAEAV?$Block@V?$Matrix@N$0?0$0?0$0A@$0?0$0?0@Eigen@@$0?0$0?0$0A@@3@AEBV?$Transpose@V?$Matrix@N$0?0$0?0$0A@$0?0$0?0@Eigen@@@3@@Z
xdata	ENDS
;	COMDAT xdata
xdata	SEGMENT
$unwind$?run@?$assign_impl@V?$Block@V?$Matrix@N$0?0$0?0$0A@$0?0$0?0@Eigen@@$0?0$0?0$0A@@Eigen@@V?$Transpose@V?$Matrix@N$0?0$0?0$0A@$0?0$0?0@Eigen@@@2@$0A@$0A@$0A@@internal@Eigen@@SAXAEAV?$Block@V?$Matrix@N$0?0$0?0$0A@$0?0$0?0@Eigen@@$0?0$0?0$0A@@3@AEBV?$Transpose@V?$Matrix@N$0?0$0?0$0A@$0?0$0?0@Eigen@@@3@@Z DD 040901H
	DD	067409H
	DD	0e007f009H
xdata	ENDS
;	COMDAT xdata
xdata	SEGMENT
$unwind$??$_set_selector@V?$CwiseUnaryOp@U?$scalar_opposite_op@N@internal@Eigen@@$$CBV?$ReturnByValue@U?$solve_retval_base@V?$PartialPivLU@V?$Matrix@N$0?0$0?0$0A@$0?0$0?0@Eigen@@@Eigen@@V?$Matrix@N$0?0$00$0A@$0?0$00@2@@internal@Eigen@@@3@@Eigen@@@?$PlainObjectBase@V?$Matrix@N$0?0$00$0A@$0?0$00@Eigen@@@Eigen@@IEAAXAEBV?$CwiseUnaryOp@U?$scalar_opposite_op@N@internal@Eigen@@$$CBV?$ReturnByValue@U?$solve_retval_base@V?$PartialPivLU@V?$Matrix@N$0?0$0?0$0A@$0?0$0?0@Eigen@@@Eigen@@V?$Matrix@N$0?0$00$0A@$0?0$00@2@@internal@Eigen@@@3@@1@AEBUfalse_type@internal@1@@Z DD 062501H
	DD	0a7425H
	DD	060043208H
	DD	030025003H
xdata	ENDS
;	COMDAT xdata
xdata	SEGMENT
$unwind$??$lazyAssign@V?$GeneralProduct@V?$Matrix@N$0?0$0?0$0A@$0?0$0?0@Eigen@@V?$MatrixWrapper@$$CBV?$CwiseUnaryOp@U?$scalar_exp_op@N@internal@Eigen@@$$CBV?$ArrayWrapper@$$CBV?$Matrix@N$0?0$00$0A@$0?0$00@Eigen@@@3@@Eigen@@@2@$03@Eigen@@@?$PlainObjectBase@V?$Matrix@N$0?0$00$0A@$0?0$00@Eigen@@@Eigen@@QEAAAEAV?$Matrix@N$0?0$00$0A@$0?0$00@1@AEBV?$DenseBase@V?$GeneralProduct@V?$Matrix@N$0?0$0?0$0A@$0?0$0?0@Eigen@@V?$MatrixWrapper@$$CBV?$CwiseUnaryOp@U?$scalar_exp_op@N@internal@Eigen@@$$CBV?$ArrayWrapper@$$CBV?$Matrix@N$0?0$00$0A@$0?0$00@Eigen@@@3@@Eigen@@@2@$03@Eigen@@@1@@Z DD 081401H
	DD	086414H
	DD	075414H
	DD	063414H
	DD	070103214H
xdata	ENDS
;	COMDAT xdata
xdata	SEGMENT
$unwind$??$lazyAssign@V?$GeneralProduct@V?$Matrix@N$0?0$0?0$0A@$0?0$0?0@Eigen@@V?$MatrixWrapper@$$CBV?$CwiseUnaryOp@U?$scalar_exp_op@N@internal@Eigen@@$$CBV?$ArrayWrapper@V?$Matrix@N$0?0$00$0A@$0?0$00@Eigen@@@3@@Eigen@@@2@$03@Eigen@@@?$PlainObjectBase@V?$Matrix@N$0?0$00$0A@$0?0$00@Eigen@@@Eigen@@QEAAAEAV?$Matrix@N$0?0$00$0A@$0?0$00@1@AEBV?$DenseBase@V?$GeneralProduct@V?$Matrix@N$0?0$0?0$0A@$0?0$0?0@Eigen@@V?$MatrixWrapper@$$CBV?$CwiseUnaryOp@U?$scalar_exp_op@N@internal@Eigen@@$$CBV?$ArrayWrapper@V?$Matrix@N$0?0$00$0A@$0?0$00@Eigen@@@3@@Eigen@@@2@$03@Eigen@@@1@@Z DD 081401H
	DD	086414H
	DD	075414H
	DD	063414H
	DD	070103214H
xdata	ENDS
;	COMDAT xdata
xdata	SEGMENT
$unwind$??$lazyAssign@V?$Matrix@N$0?0$00$0A@$0?0$00@Eigen@@@?$PlainObjectBase@V?$Matrix@N$0?0$0?0$0A@$0?0$0?0@Eigen@@@Eigen@@QEAAAEAV?$Matrix@N$0?0$0?0$0A@$0?0$0?0@1@AEBV?$DenseBase@V?$Matrix@N$0?0$00$0A@$0?0$00@Eigen@@@1@@Z DD 060d01H
	DD	0a340dH
	DD	0e009320dH
	DD	060067007H
xdata	ENDS
;	COMDAT xdata
xdata	SEGMENT
$unwind$??$lazyAssign@V?$Block@V?$Matrix@N$0?0$00$0A@$0?0$00@Eigen@@$0?0$0?0$0A@@Eigen@@@?$SelfCwiseBinaryOp@U?$scalar_sum_op@N@internal@Eigen@@V?$Matrix@N$0?0$00$0A@$0?0$00@3@V?$Block@V?$Matrix@N$0?0$00$0A@$0?0$00@Eigen@@$0?0$0?0$0A@@3@@Eigen@@QEAAAEAV01@AEBV?$DenseBase@V?$Block@V?$Matrix@N$0?0$00$0A@$0?0$00@Eigen@@$0?0$0?0$0A@@Eigen@@@1@@Z DD 040a01H
	DD	06340aH
	DD	07006320aH
xdata	ENDS
;	COMDAT xdata
xdata	SEGMENT
$chain$3$?run@?$assign_impl@V?$SelfCwiseBinaryOp@U?$scalar_sum_op@N@internal@Eigen@@V?$Matrix@N$0?0$00$0A@$0?0$00@3@V?$Block@V?$Matrix@N$0?0$00$0A@$0?0$00@Eigen@@$0?0$0?0$0A@@3@@Eigen@@V?$Block@V?$Matrix@N$0?0$00$0A@$0?0$00@Eigen@@$0?0$0?0$0A@@2@$03$0A@$0A@@internal@Eigen@@SAXAEAV?$SelfCwiseBinaryOp@U?$scalar_sum_op@N@internal@Eigen@@V?$Matrix@N$0?0$00$0A@$0?0$00@3@V?$Block@V?$Matrix@N$0?0$00$0A@$0?0$00@Eigen@@$0?0$0?0$0A@@3@@3@AEBV?$Block@V?$Matrix@N$0?0$00$0A@$0?0$00@Eigen@@$0?0$0?0$0A@@3@@Z DD 021H
	DD	imagerel $LN710
	DD	imagerel $LN710+23
	DD	imagerel $unwind$?run@?$assign_impl@V?$SelfCwiseBinaryOp@U?$scalar_sum_op@N@internal@Eigen@@V?$Matrix@N$0?0$00$0A@$0?0$00@3@V?$Block@V?$Matrix@N$0?0$00$0A@$0?0$00@Eigen@@$0?0$0?0$0A@@3@@Eigen@@V?$Block@V?$Matrix@N$0?0$00$0A@$0?0$00@Eigen@@$0?0$0?0$0A@@2@$03$0A@$0A@@internal@Eigen@@SAXAEAV?$SelfCwiseBinaryOp@U?$scalar_sum_op@N@internal@Eigen@@V?$Matrix@N$0?0$00$0A@$0?0$00@3@V?$Block@V?$Matrix@N$0?0$00$0A@$0?0$00@Eigen@@$0?0$0?0$0A@@3@@3@AEBV?$Block@V?$Matrix@N$0?0$00$0A@$0?0$00@Eigen@@$0?0$0?0$0A@@3@@Z
xdata	ENDS
;	COMDAT xdata
xdata	SEGMENT
$chain$2$?run@?$assign_impl@V?$SelfCwiseBinaryOp@U?$scalar_sum_op@N@internal@Eigen@@V?$Matrix@N$0?0$00$0A@$0?0$00@3@V?$Block@V?$Matrix@N$0?0$00$0A@$0?0$00@Eigen@@$0?0$0?0$0A@@3@@Eigen@@V?$Block@V?$Matrix@N$0?0$00$0A@$0?0$00@Eigen@@$0?0$0?0$0A@@2@$03$0A@$0A@@internal@Eigen@@SAXAEAV?$SelfCwiseBinaryOp@U?$scalar_sum_op@N@internal@Eigen@@V?$Matrix@N$0?0$00$0A@$0?0$00@3@V?$Block@V?$Matrix@N$0?0$00$0A@$0?0$00@Eigen@@$0?0$0?0$0A@@3@@3@AEBV?$Block@V?$Matrix@N$0?0$00$0A@$0?0$00@Eigen@@$0?0$0?0$0A@@3@@Z DD 021H
	DD	imagerel $LN710+23
	DD	imagerel $LN710+117
	DD	imagerel $chain$0$?run@?$assign_impl@V?$SelfCwiseBinaryOp@U?$scalar_sum_op@N@internal@Eigen@@V?$Matrix@N$0?0$00$0A@$0?0$00@3@V?$Block@V?$Matrix@N$0?0$00$0A@$0?0$00@Eigen@@$0?0$0?0$0A@@3@@Eigen@@V?$Block@V?$Matrix@N$0?0$00$0A@$0?0$00@Eigen@@$0?0$0?0$0A@@2@$03$0A@$0A@@internal@Eigen@@SAXAEAV?$SelfCwiseBinaryOp@U?$scalar_sum_op@N@internal@Eigen@@V?$Matrix@N$0?0$00$0A@$0?0$00@3@V?$Block@V?$Matrix@N$0?0$00$0A@$0?0$00@Eigen@@$0?0$0?0$0A@@3@@3@AEBV?$Block@V?$Matrix@N$0?0$00$0A@$0?0$00@Eigen@@$0?0$0?0$0A@@3@@Z
xdata	ENDS
;	COMDAT xdata
xdata	SEGMENT
$chain$1$?run@?$assign_impl@V?$SelfCwiseBinaryOp@U?$scalar_sum_op@N@internal@Eigen@@V?$Matrix@N$0?0$00$0A@$0?0$00@3@V?$Block@V?$Matrix@N$0?0$00$0A@$0?0$00@Eigen@@$0?0$0?0$0A@@3@@Eigen@@V?$Block@V?$Matrix@N$0?0$00$0A@$0?0$00@Eigen@@$0?0$0?0$0A@@2@$03$0A@$0A@@internal@Eigen@@SAXAEAV?$SelfCwiseBinaryOp@U?$scalar_sum_op@N@internal@Eigen@@V?$Matrix@N$0?0$00$0A@$0?0$00@3@V?$Block@V?$Matrix@N$0?0$00$0A@$0?0$00@Eigen@@$0?0$0?0$0A@@3@@3@AEBV?$Block@V?$Matrix@N$0?0$00$0A@$0?0$00@Eigen@@$0?0$0?0$0A@@3@@Z DD 020521H
	DD	046405H
	DD	imagerel $LN710+23
	DD	imagerel $LN710+117
	DD	imagerel $chain$0$?run@?$assign_impl@V?$SelfCwiseBinaryOp@U?$scalar_sum_op@N@internal@Eigen@@V?$Matrix@N$0?0$00$0A@$0?0$00@3@V?$Block@V?$Matrix@N$0?0$00$0A@$0?0$00@Eigen@@$0?0$0?0$0A@@3@@Eigen@@V?$Block@V?$Matrix@N$0?0$00$0A@$0?0$00@Eigen@@$0?0$0?0$0A@@2@$03$0A@$0A@@internal@Eigen@@SAXAEAV?$SelfCwiseBinaryOp@U?$scalar_sum_op@N@internal@Eigen@@V?$Matrix@N$0?0$00$0A@$0?0$00@3@V?$Block@V?$Matrix@N$0?0$00$0A@$0?0$00@Eigen@@$0?0$0?0$0A@@3@@3@AEBV?$Block@V?$Matrix@N$0?0$00$0A@$0?0$00@Eigen@@$0?0$0?0$0A@@3@@Z
xdata	ENDS
;	COMDAT xdata
xdata	SEGMENT
$chain$0$?run@?$assign_impl@V?$SelfCwiseBinaryOp@U?$scalar_sum_op@N@internal@Eigen@@V?$Matrix@N$0?0$00$0A@$0?0$00@3@V?$Block@V?$Matrix@N$0?0$00$0A@$0?0$00@Eigen@@$0?0$0?0$0A@@3@@Eigen@@V?$Block@V?$Matrix@N$0?0$00$0A@$0?0$00@Eigen@@$0?0$0?0$0A@@2@$03$0A@$0A@@internal@Eigen@@SAXAEAV?$SelfCwiseBinaryOp@U?$scalar_sum_op@N@internal@Eigen@@V?$Matrix@N$0?0$00$0A@$0?0$00@3@V?$Block@V?$Matrix@N$0?0$00$0A@$0?0$00@Eigen@@$0?0$0?0$0A@@3@@3@AEBV?$Block@V?$Matrix@N$0?0$00$0A@$0?0$00@Eigen@@$0?0$0?0$0A@@3@@Z DD 020521H
	DD	0a3405H
	DD	imagerel $LN710
	DD	imagerel $LN710+23
	DD	imagerel $unwind$?run@?$assign_impl@V?$SelfCwiseBinaryOp@U?$scalar_sum_op@N@internal@Eigen@@V?$Matrix@N$0?0$00$0A@$0?0$00@3@V?$Block@V?$Matrix@N$0?0$00$0A@$0?0$00@Eigen@@$0?0$0?0$0A@@3@@Eigen@@V?$Block@V?$Matrix@N$0?0$00$0A@$0?0$00@Eigen@@$0?0$0?0$0A@@2@$03$0A@$0A@@internal@Eigen@@SAXAEAV?$SelfCwiseBinaryOp@U?$scalar_sum_op@N@internal@Eigen@@V?$Matrix@N$0?0$00$0A@$0?0$00@3@V?$Block@V?$Matrix@N$0?0$00$0A@$0?0$00@Eigen@@$0?0$0?0$0A@@3@@3@AEBV?$Block@V?$Matrix@N$0?0$00$0A@$0?0$00@Eigen@@$0?0$0?0$0A@@3@@Z
xdata	ENDS
;	COMDAT xdata
xdata	SEGMENT
$unwind$?run@?$assign_impl@V?$SelfCwiseBinaryOp@U?$scalar_sum_op@N@internal@Eigen@@V?$Matrix@N$0?0$00$0A@$0?0$00@3@V?$Block@V?$Matrix@N$0?0$00$0A@$0?0$00@Eigen@@$0?0$0?0$0A@@3@@Eigen@@V?$Block@V?$Matrix@N$0?0$00$0A@$0?0$00@Eigen@@$0?0$0?0$0A@@2@$03$0A@$0A@@internal@Eigen@@SAXAEAV?$SelfCwiseBinaryOp@U?$scalar_sum_op@N@internal@Eigen@@V?$Matrix@N$0?0$00$0A@$0?0$00@3@V?$Block@V?$Matrix@N$0?0$00$0A@$0?0$00@Eigen@@$0?0$0?0$0A@@3@@3@AEBV?$Block@V?$Matrix@N$0?0$00$0A@$0?0$00@Eigen@@$0?0$0?0$0A@@3@@Z DD 031719H
	DD	0e0044208H
	DD	07002H
	DD	imagerel __GSHandlerCheck
	DD	010H
xdata	ENDS
;	COMDAT xdata
xdata	SEGMENT
$unwind$??$_resize_to_match@V?$GeneralProduct@V?$Matrix@N$0?0$0?0$0A@$0?0$0?0@Eigen@@V?$MatrixWrapper@$$CBV?$CwiseUnaryOp@U?$scalar_exp_op@N@internal@Eigen@@$$CBV?$ArrayWrapper@$$CBV?$Matrix@N$0?0$00$0A@$0?0$00@Eigen@@@3@@Eigen@@@2@$03@Eigen@@@?$PlainObjectBase@V?$Matrix@N$0?0$00$0A@$0?0$00@Eigen@@@Eigen@@IEAAXAEBU?$EigenBase@V?$GeneralProduct@V?$Matrix@N$0?0$0?0$0A@$0?0$0?0@Eigen@@V?$MatrixWrapper@$$CBV?$CwiseUnaryOp@U?$scalar_exp_op@N@internal@Eigen@@$$CBV?$ArrayWrapper@$$CBV?$Matrix@N$0?0$00$0A@$0?0$00@Eigen@@@3@@Eigen@@@2@$03@Eigen@@@1@@Z DD 060f01H
	DD	07640fH
	DD	06340fH
	DD	0700b320fH
xdata	ENDS
;	COMDAT xdata
xdata	SEGMENT
$unwind$??$lazyAssign@V?$GeneralProduct@V?$Matrix@N$0?0$0?0$0A@$0?0$0?0@Eigen@@V?$MatrixWrapper@$$CBV?$CwiseUnaryOp@U?$scalar_exp_op@N@internal@Eigen@@$$CBV?$ArrayWrapper@$$CBV?$Matrix@N$0?0$00$0A@$0?0$00@Eigen@@@3@@Eigen@@@2@$03@Eigen@@V?$Matrix@N$0?0$0?0$0A@$0?0$0?0@2@V?$MatrixWrapper@$$CBV?$CwiseUnaryOp@U?$scalar_exp_op@N@internal@Eigen@@$$CBV?$ArrayWrapper@$$CBV?$Matrix@N$0?0$00$0A@$0?0$00@Eigen@@@3@@Eigen@@@2@@?$MatrixBase@V?$Matrix@N$0?0$00$0A@$0?0$00@Eigen@@@Eigen@@QEAAAEAV?$Matrix@N$0?0$00$0A@$0?0$00@1@AEBV?$ProductBase@V?$GeneralProduct@V?$Matrix@N$0?0$0?0$0A@$0?0$0?0@Eigen@@V?$MatrixWrapper@$$CBV?$CwiseUnaryOp@U?$scalar_exp_op@N@internal@Eigen@@$$CBV?$ArrayWrapper@$$CBV?$Matrix@N$0?0$00$0A@$0?0$00@Eigen@@@3@@Eigen@@@2@$03@Eigen@@V?$Matrix@N$0?0$0?0$0A@$0?0$0?0@2@V?$MatrixWrapper@$$CBV?$CwiseUnaryOp@U?$scalar_exp_op@N@internal@Eigen@@$$CBV?$ArrayWrapper@$$CBV?$Matrix@N$0?0$00$0A@$0?0$00@Eigen@@@3@@Eigen@@@2@@1@@Z DD 020601H
	DD	030023206H
xdata	ENDS
;	COMDAT xdata
xdata	SEGMENT
$unwind$??$_resize_to_match@V?$GeneralProduct@V?$Matrix@N$0?0$0?0$0A@$0?0$0?0@Eigen@@V?$MatrixWrapper@$$CBV?$CwiseUnaryOp@U?$scalar_exp_op@N@internal@Eigen@@$$CBV?$ArrayWrapper@V?$Matrix@N$0?0$00$0A@$0?0$00@Eigen@@@3@@Eigen@@@2@$03@Eigen@@@?$PlainObjectBase@V?$Matrix@N$0?0$00$0A@$0?0$00@Eigen@@@Eigen@@IEAAXAEBU?$EigenBase@V?$GeneralProduct@V?$Matrix@N$0?0$0?0$0A@$0?0$0?0@Eigen@@V?$MatrixWrapper@$$CBV?$CwiseUnaryOp@U?$scalar_exp_op@N@internal@Eigen@@$$CBV?$ArrayWrapper@V?$Matrix@N$0?0$00$0A@$0?0$00@Eigen@@@3@@Eigen@@@2@$03@Eigen@@@1@@Z DD 060f01H
	DD	07640fH
	DD	06340fH
	DD	0700b320fH
xdata	ENDS
;	COMDAT xdata
xdata	SEGMENT
$unwind$??$lazyAssign@V?$GeneralProduct@V?$Matrix@N$0?0$0?0$0A@$0?0$0?0@Eigen@@V?$MatrixWrapper@$$CBV?$CwiseUnaryOp@U?$scalar_exp_op@N@internal@Eigen@@$$CBV?$ArrayWrapper@V?$Matrix@N$0?0$00$0A@$0?0$00@Eigen@@@3@@Eigen@@@2@$03@Eigen@@V?$Matrix@N$0?0$0?0$0A@$0?0$0?0@2@V?$MatrixWrapper@$$CBV?$CwiseUnaryOp@U?$scalar_exp_op@N@internal@Eigen@@$$CBV?$ArrayWrapper@V?$Matrix@N$0?0$00$0A@$0?0$00@Eigen@@@3@@Eigen@@@2@@?$MatrixBase@V?$Matrix@N$0?0$00$0A@$0?0$00@Eigen@@@Eigen@@QEAAAEAV?$Matrix@N$0?0$00$0A@$0?0$00@1@AEBV?$ProductBase@V?$GeneralProduct@V?$Matrix@N$0?0$0?0$0A@$0?0$0?0@Eigen@@V?$MatrixWrapper@$$CBV?$CwiseUnaryOp@U?$scalar_exp_op@N@internal@Eigen@@$$CBV?$ArrayWrapper@V?$Matrix@N$0?0$00$0A@$0?0$00@Eigen@@@3@@Eigen@@@2@$03@Eigen@@V?$Matrix@N$0?0$0?0$0A@$0?0$0?0@2@V?$MatrixWrapper@$$CBV?$CwiseUnaryOp@U?$scalar_exp_op@N@internal@Eigen@@$$CBV?$ArrayWrapper@V?$Matrix@N$0?0$00$0A@$0?0$00@Eigen@@@3@@Eigen@@@2@@1@@Z DD 020601H
	DD	030023206H
xdata	ENDS
;	COMDAT xdata
xdata	SEGMENT
$unwind$??$_resize_to_match@V?$Matrix@N$0?0$00$0A@$0?0$00@Eigen@@@?$PlainObjectBase@V?$Matrix@N$0?0$0?0$0A@$0?0$0?0@Eigen@@@Eigen@@IEAAXAEBU?$EigenBase@V?$Matrix@N$0?0$00$0A@$0?0$00@Eigen@@@1@@Z DD 060f01H
	DD	07640fH
	DD	06340fH
	DD	0700b320fH
xdata	ENDS
;	COMDAT xdata
xdata	SEGMENT
$unwind$??$lazyAssign@V?$Matrix@N$0?0$00$0A@$0?0$00@Eigen@@@?$DenseBase@V?$Matrix@N$0?0$0?0$0A@$0?0$0?0@Eigen@@@Eigen@@QEAAAEAV?$Matrix@N$0?0$0?0$0A@$0?0$0?0@1@AEBV?$DenseBase@V?$Matrix@N$0?0$00$0A@$0?0$00@Eigen@@@1@@Z DD 040a01H
	DD	08340aH
	DD	07006320aH
xdata	ENDS
;	COMDAT xdata
xdata	SEGMENT
$unwind$?run@?$assign_impl@V?$Matrix@N$0?0$0?0$0A@$0?0$0?0@Eigen@@V?$Matrix@N$0?0$00$0A@$0?0$00@2@$02$0A@$0A@@internal@Eigen@@SAXAEAV?$Matrix@N$0?0$0?0$0A@$0?0$0?0@3@AEBV?$Matrix@N$0?0$00$0A@$0?0$00@3@@Z DD 020601H
	DD	030023206H
xdata	ENDS
;	COMDAT xdata
xdata	SEGMENT
$unwind$??$resizeLike@V?$GeneralProduct@V?$Matrix@N$0?0$0?0$0A@$0?0$0?0@Eigen@@V?$MatrixWrapper@$$CBV?$CwiseUnaryOp@U?$scalar_exp_op@N@internal@Eigen@@$$CBV?$ArrayWrapper@$$CBV?$Matrix@N$0?0$00$0A@$0?0$00@Eigen@@@3@@Eigen@@@2@$03@Eigen@@@?$PlainObjectBase@V?$Matrix@N$0?0$00$0A@$0?0$00@Eigen@@@Eigen@@QEAAXAEBU?$EigenBase@V?$GeneralProduct@V?$Matrix@N$0?0$0?0$0A@$0?0$0?0@Eigen@@V?$MatrixWrapper@$$CBV?$CwiseUnaryOp@U?$scalar_exp_op@N@internal@Eigen@@$$CBV?$ArrayWrapper@$$CBV?$Matrix@N$0?0$00$0A@$0?0$00@Eigen@@@3@@Eigen@@@2@$03@Eigen@@@1@@Z DD 060f01H
	DD	07640fH
	DD	06340fH
	DD	0700b320fH
xdata	ENDS
;	COMDAT xdata
xdata	SEGMENT
$unwind$??$resizeLike@V?$GeneralProduct@V?$Matrix@N$0?0$0?0$0A@$0?0$0?0@Eigen@@V?$MatrixWrapper@$$CBV?$CwiseUnaryOp@U?$scalar_exp_op@N@internal@Eigen@@$$CBV?$ArrayWrapper@V?$Matrix@N$0?0$00$0A@$0?0$00@Eigen@@@3@@Eigen@@@2@$03@Eigen@@@?$PlainObjectBase@V?$Matrix@N$0?0$00$0A@$0?0$00@Eigen@@@Eigen@@QEAAXAEBU?$EigenBase@V?$GeneralProduct@V?$Matrix@N$0?0$0?0$0A@$0?0$0?0@Eigen@@V?$MatrixWrapper@$$CBV?$CwiseUnaryOp@U?$scalar_exp_op@N@internal@Eigen@@$$CBV?$ArrayWrapper@V?$Matrix@N$0?0$00$0A@$0?0$00@Eigen@@@3@@Eigen@@@2@$03@Eigen@@@1@@Z DD 060f01H
	DD	07640fH
	DD	06340fH
	DD	0700b320fH
xdata	ENDS
;	COMDAT xdata
xdata	SEGMENT
$unwind$??$evalTo@V?$Matrix@N$0?0$00$0A@$0?0$00@Eigen@@@?$ProductBase@V?$GeneralProduct@V?$Matrix@N$0?0$0?0$0A@$0?0$0?0@Eigen@@V?$MatrixWrapper@$$CBV?$CwiseUnaryOp@U?$scalar_exp_op@N@internal@Eigen@@$$CBV?$ArrayWrapper@V?$Matrix@N$0?0$00$0A@$0?0$00@Eigen@@@3@@Eigen@@@2@$03@Eigen@@V?$Matrix@N$0?0$0?0$0A@$0?0$0?0@2@V?$MatrixWrapper@$$CBV?$CwiseUnaryOp@U?$scalar_exp_op@N@internal@Eigen@@$$CBV?$ArrayWrapper@V?$Matrix@N$0?0$00$0A@$0?0$00@Eigen@@@3@@Eigen@@@2@@Eigen@@QEBAXAEAV?$Matrix@N$0?0$00$0A@$0?0$00@1@@Z DD 064801H
	DD	0103448H
	DD	0e0059209H
	DD	060027003H
xdata	ENDS
;	COMDAT xdata
xdata	SEGMENT
$unwind$??$resizeLike@V?$Matrix@N$0?0$00$0A@$0?0$00@Eigen@@@?$PlainObjectBase@V?$Matrix@N$0?0$0?0$0A@$0?0$0?0@Eigen@@@Eigen@@QEAAXAEBU?$EigenBase@V?$Matrix@N$0?0$00$0A@$0?0$00@Eigen@@@1@@Z DD 060f01H
	DD	07640fH
	DD	06340fH
	DD	0700b320fH
xdata	ENDS
;	COMDAT xdata
xdata	SEGMENT
$unwind$??$run@V?$Matrix@N$0?0$00$0A@$0?0$00@Eigen@@V?$Matrix@N$0?0$0?0$0A@$0?0$0?0@2@@?$unaligned_assign_impl@$0A@@internal@Eigen@@SAXAEBV?$Matrix@N$0?0$00$0A@$0?0$00@2@AEAV?$Matrix@N$0?0$0?0$0A@$0?0$0?0@2@_J2@Z DD 020501H
	DD	013405H
xdata	ENDS
;	COMDAT xdata
xdata	SEGMENT
$unwind$??$scaleAndAddTo@V?$Matrix@N$0?0$00$0A@$0?0$00@Eigen@@@?$ProductBase@V?$GeneralProduct@V?$Matrix@N$0?0$0?0$0A@$0?0$0?0@Eigen@@V?$MatrixWrapper@$$CBV?$CwiseUnaryOp@U?$scalar_exp_op@N@internal@Eigen@@$$CBV?$ArrayWrapper@V?$Matrix@N$0?0$00$0A@$0?0$00@Eigen@@@3@@Eigen@@@2@$03@Eigen@@V?$Matrix@N$0?0$0?0$0A@$0?0$0?0@2@V?$MatrixWrapper@$$CBV?$CwiseUnaryOp@U?$scalar_exp_op@N@internal@Eigen@@$$CBV?$ArrayWrapper@V?$Matrix@N$0?0$00$0A@$0?0$00@Eigen@@@3@@Eigen@@@2@@Eigen@@QEBAXAEAV?$Matrix@N$0?0$00$0A@$0?0$00@1@AEBN@Z DD 060f01H
	DD	07640fH
	DD	06340fH
	DD	0700b320fH
xdata	ENDS
;	COMDAT xdata
xdata	SEGMENT
$unwind$??$scaleAndAddTo@V?$Matrix@N$0?0$00$0A@$0?0$00@Eigen@@@?$GeneralProduct@V?$Matrix@N$0?0$0?0$0A@$0?0$0?0@Eigen@@V?$MatrixWrapper@$$CBV?$CwiseUnaryOp@U?$scalar_exp_op@N@internal@Eigen@@$$CBV?$ArrayWrapper@V?$Matrix@N$0?0$00$0A@$0?0$00@Eigen@@@3@@Eigen@@@2@$03@Eigen@@QEBAXAEAV?$Matrix@N$0?0$00$0A@$0?0$00@1@AEBN@Z DD 060f01H
	DD	07640fH
	DD	06340fH
	DD	0700b320fH
xdata	ENDS
;	COMDAT xdata
xdata	SEGMENT
$ip2state$??$run@V?$GeneralProduct@V?$Matrix@N$0?0$0?0$0A@$0?0$0?0@Eigen@@V?$MatrixWrapper@$$CBV?$CwiseUnaryOp@U?$scalar_exp_op@N@internal@Eigen@@$$CBV?$ArrayWrapper@V?$Matrix@N$0?0$00$0A@$0?0$00@Eigen@@@3@@Eigen@@@2@$03@Eigen@@V?$Matrix@N$0?0$00$0A@$0?0$00@2@@?$gemv_selector@$01$0A@$00@internal@Eigen@@SAXAEBV?$GeneralProduct@V?$Matrix@N$0?0$0?0$0A@$0?0$0?0@Eigen@@V?$MatrixWrapper@$$CBV?$CwiseUnaryOp@U?$scalar_exp_op@N@internal@Eigen@@$$CBV?$ArrayWrapper@V?$Matrix@N$0?0$00$0A@$0?0$00@Eigen@@@3@@Eigen@@@2@$03@2@AEAV?$Matrix@N$0?0$00$0A@$0?0$00@2@AEBN@Z DD imagerel ??$run@V?$GeneralProduct@V?$Matrix@N$0?0$0?0$0A@$0?0$0?0@Eigen@@V?$MatrixWrapper@$$CBV?$CwiseUnaryOp@U?$scalar_exp_op@N@internal@Eigen@@$$CBV?$ArrayWrapper@V?$Matrix@N$0?0$00$0A@$0?0$00@Eigen@@@3@@Eigen@@@2@$03@Eigen@@V?$Matrix@N$0?0$00$0A@$0?0$00@2@@?$gemv_selector@$01$0A@$00@internal@Eigen@@SAXAEBV?$GeneralProduct@V?$Matrix@N$0?0$0?0$0A@$0?0$0?0@Eigen@@V?$MatrixWrapper@$$CBV?$CwiseUnaryOp@U?$scalar_exp_op@N@internal@Eigen@@$$CBV?$ArrayWrapper@V?$Matrix@N$0?0$00$0A@$0?0$00@Eigen@@@3@@Eigen@@@2@$03@2@AEAV?$Matrix@N$0?0$00$0A@$0?0$00@2@AEBN@Z
	DD	0ffffffffH
	DD	imagerel ??$run@V?$GeneralProduct@V?$Matrix@N$0?0$0?0$0A@$0?0$0?0@Eigen@@V?$MatrixWrapper@$$CBV?$CwiseUnaryOp@U?$scalar_exp_op@N@internal@Eigen@@$$CBV?$ArrayWrapper@V?$Matrix@N$0?0$00$0A@$0?0$00@Eigen@@@3@@Eigen@@@2@$03@Eigen@@V?$Matrix@N$0?0$00$0A@$0?0$00@2@@?$gemv_selector@$01$0A@$00@internal@Eigen@@SAXAEBV?$GeneralProduct@V?$Matrix@N$0?0$0?0$0A@$0?0$0?0@Eigen@@V?$MatrixWrapper@$$CBV?$CwiseUnaryOp@U?$scalar_exp_op@N@internal@Eigen@@$$CBV?$ArrayWrapper@V?$Matrix@N$0?0$00$0A@$0?0$00@Eigen@@@3@@Eigen@@@2@$03@2@AEAV?$Matrix@N$0?0$00$0A@$0?0$00@2@AEBN@Z+175
	DD	00H
	DD	imagerel ??$run@V?$GeneralProduct@V?$Matrix@N$0?0$0?0$0A@$0?0$0?0@Eigen@@V?$MatrixWrapper@$$CBV?$CwiseUnaryOp@U?$scalar_exp_op@N@internal@Eigen@@$$CBV?$ArrayWrapper@V?$Matrix@N$0?0$00$0A@$0?0$00@Eigen@@@3@@Eigen@@@2@$03@Eigen@@V?$Matrix@N$0?0$00$0A@$0?0$00@2@@?$gemv_selector@$01$0A@$00@internal@Eigen@@SAXAEBV?$GeneralProduct@V?$Matrix@N$0?0$0?0$0A@$0?0$0?0@Eigen@@V?$MatrixWrapper@$$CBV?$CwiseUnaryOp@U?$scalar_exp_op@N@internal@Eigen@@$$CBV?$ArrayWrapper@V?$Matrix@N$0?0$00$0A@$0?0$00@Eigen@@@3@@Eigen@@@2@$03@2@AEAV?$Matrix@N$0?0$00$0A@$0?0$00@2@AEBN@Z+440
	DD	01H
	DD	imagerel ??$run@V?$GeneralProduct@V?$Matrix@N$0?0$0?0$0A@$0?0$0?0@Eigen@@V?$MatrixWrapper@$$CBV?$CwiseUnaryOp@U?$scalar_exp_op@N@internal@Eigen@@$$CBV?$ArrayWrapper@V?$Matrix@N$0?0$00$0A@$0?0$00@Eigen@@@3@@Eigen@@@2@$03@Eigen@@V?$Matrix@N$0?0$00$0A@$0?0$00@2@@?$gemv_selector@$01$0A@$00@internal@Eigen@@SAXAEBV?$GeneralProduct@V?$Matrix@N$0?0$0?0$0A@$0?0$0?0@Eigen@@V?$MatrixWrapper@$$CBV?$CwiseUnaryOp@U?$scalar_exp_op@N@internal@Eigen@@$$CBV?$ArrayWrapper@V?$Matrix@N$0?0$00$0A@$0?0$00@Eigen@@@3@@Eigen@@@2@$03@2@AEAV?$Matrix@N$0?0$00$0A@$0?0$00@2@AEBN@Z+621
	DD	02H
	DD	imagerel ??$run@V?$GeneralProduct@V?$Matrix@N$0?0$0?0$0A@$0?0$0?0@Eigen@@V?$MatrixWrapper@$$CBV?$CwiseUnaryOp@U?$scalar_exp_op@N@internal@Eigen@@$$CBV?$ArrayWrapper@V?$Matrix@N$0?0$00$0A@$0?0$00@Eigen@@@3@@Eigen@@@2@$03@Eigen@@V?$Matrix@N$0?0$00$0A@$0?0$00@2@@?$gemv_selector@$01$0A@$00@internal@Eigen@@SAXAEBV?$GeneralProduct@V?$Matrix@N$0?0$0?0$0A@$0?0$0?0@Eigen@@V?$MatrixWrapper@$$CBV?$CwiseUnaryOp@U?$scalar_exp_op@N@internal@Eigen@@$$CBV?$ArrayWrapper@V?$Matrix@N$0?0$00$0A@$0?0$00@Eigen@@@3@@Eigen@@@2@$03@2@AEAV?$Matrix@N$0?0$00$0A@$0?0$00@2@AEBN@Z+670
	DD	01H
	DD	imagerel ??$run@V?$GeneralProduct@V?$Matrix@N$0?0$0?0$0A@$0?0$0?0@Eigen@@V?$MatrixWrapper@$$CBV?$CwiseUnaryOp@U?$scalar_exp_op@N@internal@Eigen@@$$CBV?$ArrayWrapper@V?$Matrix@N$0?0$00$0A@$0?0$00@Eigen@@@3@@Eigen@@@2@$03@Eigen@@V?$Matrix@N$0?0$00$0A@$0?0$00@2@@?$gemv_selector@$01$0A@$00@internal@Eigen@@SAXAEBV?$GeneralProduct@V?$Matrix@N$0?0$0?0$0A@$0?0$0?0@Eigen@@V?$MatrixWrapper@$$CBV?$CwiseUnaryOp@U?$scalar_exp_op@N@internal@Eigen@@$$CBV?$ArrayWrapper@V?$Matrix@N$0?0$00$0A@$0?0$00@Eigen@@@3@@Eigen@@@2@$03@2@AEAV?$Matrix@N$0?0$00$0A@$0?0$00@2@AEBN@Z+684
	DD	0ffffffffH
xdata	ENDS
;	COMDAT xdata
xdata	SEGMENT
$stateUnwindMap$??$run@V?$GeneralProduct@V?$Matrix@N$0?0$0?0$0A@$0?0$0?0@Eigen@@V?$MatrixWrapper@$$CBV?$CwiseUnaryOp@U?$scalar_exp_op@N@internal@Eigen@@$$CBV?$ArrayWrapper@V?$Matrix@N$0?0$00$0A@$0?0$00@Eigen@@@3@@Eigen@@@2@$03@Eigen@@V?$Matrix@N$0?0$00$0A@$0?0$00@2@@?$gemv_selector@$01$0A@$00@internal@Eigen@@SAXAEBV?$GeneralProduct@V?$Matrix@N$0?0$0?0$0A@$0?0$0?0@Eigen@@V?$MatrixWrapper@$$CBV?$CwiseUnaryOp@U?$scalar_exp_op@N@internal@Eigen@@$$CBV?$ArrayWrapper@V?$Matrix@N$0?0$00$0A@$0?0$00@Eigen@@@3@@Eigen@@@2@$03@2@AEAV?$Matrix@N$0?0$00$0A@$0?0$00@2@AEBN@Z DD 0ffffffffH
	DD	imagerel ?dtor$2@?0???$run@V?$GeneralProduct@V?$Matrix@N$0?0$0?0$0A@$0?0$0?0@Eigen@@V?$MatrixWrapper@$$CBV?$CwiseUnaryOp@U?$scalar_exp_op@N@internal@Eigen@@$$CBV?$ArrayWrapper@V?$Matrix@N$0?0$00$0A@$0?0$00@Eigen@@@3@@Eigen@@@2@$03@Eigen@@V?$Matrix@N$0?0$00$0A@$0?0$00@2@@?$gemv_selector@$01$0A@$00@internal@Eigen@@SAXAEBV?$GeneralProduct@V?$Matrix@N$0?0$0?0$0A@$0?0$0?0@Eigen@@V?$MatrixWrapper@$$CBV?$CwiseUnaryOp@U?$scalar_exp_op@N@internal@Eigen@@$$CBV?$ArrayWrapper@V?$Matrix@N$0?0$00$0A@$0?0$00@Eigen@@@3@@Eigen@@@2@$03@2@AEAV?$Matrix@N$0?0$00$0A@$0?0$00@2@AEBN@Z@4HA
	DD	0ffffffffH
	DD	imagerel ?dtor$0@?0???$run@V?$GeneralProduct@V?$Matrix@N$0?0$0?0$0A@$0?0$0?0@Eigen@@V?$MatrixWrapper@$$CBV?$CwiseUnaryOp@U?$scalar_exp_op@N@internal@Eigen@@$$CBV?$ArrayWrapper@V?$Matrix@N$0?0$00$0A@$0?0$00@Eigen@@@3@@Eigen@@@2@$03@Eigen@@V?$Matrix@N$0?0$00$0A@$0?0$00@2@@?$gemv_selector@$01$0A@$00@internal@Eigen@@SAXAEBV?$GeneralProduct@V?$Matrix@N$0?0$0?0$0A@$0?0$0?0@Eigen@@V?$MatrixWrapper@$$CBV?$CwiseUnaryOp@U?$scalar_exp_op@N@internal@Eigen@@$$CBV?$ArrayWrapper@V?$Matrix@N$0?0$00$0A@$0?0$00@Eigen@@@3@@Eigen@@@2@$03@2@AEAV?$Matrix@N$0?0$00$0A@$0?0$00@2@AEBN@Z@4HA
	DD	01H
	DD	imagerel ?dtor$1@?0???$run@V?$GeneralProduct@V?$Matrix@N$0?0$0?0$0A@$0?0$0?0@Eigen@@V?$MatrixWrapper@$$CBV?$CwiseUnaryOp@U?$scalar_exp_op@N@internal@Eigen@@$$CBV?$ArrayWrapper@V?$Matrix@N$0?0$00$0A@$0?0$00@Eigen@@@3@@Eigen@@@2@$03@Eigen@@V?$Matrix@N$0?0$00$0A@$0?0$00@2@@?$gemv_selector@$01$0A@$00@internal@Eigen@@SAXAEBV?$GeneralProduct@V?$Matrix@N$0?0$0?0$0A@$0?0$0?0@Eigen@@V?$MatrixWrapper@$$CBV?$CwiseUnaryOp@U?$scalar_exp_op@N@internal@Eigen@@$$CBV?$ArrayWrapper@V?$Matrix@N$0?0$00$0A@$0?0$00@Eigen@@@3@@Eigen@@@2@$03@2@AEAV?$Matrix@N$0?0$00$0A@$0?0$00@2@AEBN@Z@4HA
xdata	ENDS
;	COMDAT CONST
CONST	SEGMENT
$cppxdata$??$run@V?$GeneralProduct@V?$Matrix@N$0?0$0?0$0A@$0?0$0?0@Eigen@@V?$MatrixWrapper@$$CBV?$CwiseUnaryOp@U?$scalar_exp_op@N@internal@Eigen@@$$CBV?$ArrayWrapper@V?$Matrix@N$0?0$00$0A@$0?0$00@Eigen@@@3@@Eigen@@@2@$03@Eigen@@V?$Matrix@N$0?0$00$0A@$0?0$00@2@@?$gemv_selector@$01$0A@$00@internal@Eigen@@SAXAEBV?$GeneralProduct@V?$Matrix@N$0?0$0?0$0A@$0?0$0?0@Eigen@@V?$MatrixWrapper@$$CBV?$CwiseUnaryOp@U?$scalar_exp_op@N@internal@Eigen@@$$CBV?$ArrayWrapper@V?$Matrix@N$0?0$00$0A@$0?0$00@Eigen@@@3@@Eigen@@@2@$03@2@AEAV?$Matrix@N$0?0$00$0A@$0?0$00@2@AEBN@Z DD 019930522H
	DD	03H
	DD	imagerel $stateUnwindMap$??$run@V?$GeneralProduct@V?$Matrix@N$0?0$0?0$0A@$0?0$0?0@Eigen@@V?$MatrixWrapper@$$CBV?$CwiseUnaryOp@U?$scalar_exp_op@N@internal@Eigen@@$$CBV?$ArrayWrapper@V?$Matrix@N$0?0$00$0A@$0?0$00@Eigen@@@3@@Eigen@@@2@$03@Eigen@@V?$Matrix@N$0?0$00$0A@$0?0$00@2@@?$gemv_selector@$01$0A@$00@internal@Eigen@@SAXAEBV?$GeneralProduct@V?$Matrix@N$0?0$0?0$0A@$0?0$0?0@Eigen@@V?$MatrixWrapper@$$CBV?$CwiseUnaryOp@U?$scalar_exp_op@N@internal@Eigen@@$$CBV?$ArrayWrapper@V?$Matrix@N$0?0$00$0A@$0?0$00@Eigen@@@3@@Eigen@@@2@$03@2@AEAV?$Matrix@N$0?0$00$0A@$0?0$00@2@AEBN@Z
	DD	00H
	DD	00H
	DD	06H
	DD	imagerel $ip2state$??$run@V?$GeneralProduct@V?$Matrix@N$0?0$0?0$0A@$0?0$0?0@Eigen@@V?$MatrixWrapper@$$CBV?$CwiseUnaryOp@U?$scalar_exp_op@N@internal@Eigen@@$$CBV?$ArrayWrapper@V?$Matrix@N$0?0$00$0A@$0?0$00@Eigen@@@3@@Eigen@@@2@$03@Eigen@@V?$Matrix@N$0?0$00$0A@$0?0$00@2@@?$gemv_selector@$01$0A@$00@internal@Eigen@@SAXAEBV?$GeneralProduct@V?$Matrix@N$0?0$0?0$0A@$0?0$0?0@Eigen@@V?$MatrixWrapper@$$CBV?$CwiseUnaryOp@U?$scalar_exp_op@N@internal@Eigen@@$$CBV?$ArrayWrapper@V?$Matrix@N$0?0$00$0A@$0?0$00@Eigen@@@3@@Eigen@@@2@$03@2@AEAV?$Matrix@N$0?0$00$0A@$0?0$00@2@AEBN@Z
	DD	068H
	DD	00H
	DD	01H
CONST	ENDS
;	COMDAT xdata
xdata	SEGMENT
$unwind$??$run@V?$GeneralProduct@V?$Matrix@N$0?0$0?0$0A@$0?0$0?0@Eigen@@V?$MatrixWrapper@$$CBV?$CwiseUnaryOp@U?$scalar_exp_op@N@internal@Eigen@@$$CBV?$ArrayWrapper@V?$Matrix@N$0?0$00$0A@$0?0$00@Eigen@@@3@@Eigen@@@2@$03@Eigen@@V?$Matrix@N$0?0$00$0A@$0?0$00@2@@?$gemv_selector@$01$0A@$00@internal@Eigen@@SAXAEBV?$GeneralProduct@V?$Matrix@N$0?0$0?0$0A@$0?0$0?0@Eigen@@V?$MatrixWrapper@$$CBV?$CwiseUnaryOp@U?$scalar_exp_op@N@internal@Eigen@@$$CBV?$ArrayWrapper@V?$Matrix@N$0?0$00$0A@$0?0$00@Eigen@@@3@@Eigen@@@2@$03@2@AEAV?$Matrix@N$0?0$00$0A@$0?0$00@2@AEBN@Z DD 0550e3919H
	DD	0b682bH
	DD	0223427H
	DD	01135318H
	DD	0f00c0018H
	DD	0d008e00aH
	DD	07004c006H
	DD	050026003H
	DD	imagerel __GSHandlerCheck_EH
	DD	imagerel $cppxdata$??$run@V?$GeneralProduct@V?$Matrix@N$0?0$0?0$0A@$0?0$0?0@Eigen@@V?$MatrixWrapper@$$CBV?$CwiseUnaryOp@U?$scalar_exp_op@N@internal@Eigen@@$$CBV?$ArrayWrapper@V?$Matrix@N$0?0$00$0A@$0?0$00@Eigen@@@3@@Eigen@@@2@$03@Eigen@@V?$Matrix@N$0?0$00$0A@$0?0$00@2@@?$gemv_selector@$01$0A@$00@internal@Eigen@@SAXAEBV?$GeneralProduct@V?$Matrix@N$0?0$0?0$0A@$0?0$0?0@Eigen@@V?$MatrixWrapper@$$CBV?$CwiseUnaryOp@U?$scalar_exp_op@N@internal@Eigen@@$$CBV?$ArrayWrapper@V?$Matrix@N$0?0$00$0A@$0?0$00@Eigen@@@3@@Eigen@@@2@$03@2@AEAV?$Matrix@N$0?0$00$0A@$0?0$00@2@AEBN@Z
	DD	0aaH
; Function compile flags: /Ogtpy
; File c:\users\jumpei tono\documents\visual studio 2013\projects\fujii\tikhonov_nonlin2d_study\tikhonov2d.cpp
; File c:\program files (x86)\microsoft visual studio 12.0\vc\include\eigen\src\core\densestorage.h
; File c:\program files (x86)\microsoft visual studio 12.0\vc\include\eigen\src\core\util\memory.h
; File c:\program files (x86)\microsoft visual studio 12.0\vc\include\eigen\src\core\densestorage.h
; File c:\program files (x86)\microsoft visual studio 12.0\vc\include\eigen\src\core\plainobjectbase.h
; File c:\program files (x86)\microsoft visual studio 12.0\vc\include\eigen\src\core\densestorage.h
; File c:\program files (x86)\microsoft visual studio 12.0\vc\include\eigen\src\core\util\memory.h
; File c:\program files (x86)\microsoft visual studio 12.0\vc\include\eigen\src\core\densestorage.h
; File c:\program files (x86)\microsoft visual studio 12.0\vc\include\eigen\src\core\assign.h
; File c:\program files (x86)\microsoft visual studio 12.0\vc\include\eigen\src\core\densestorage.h
; File c:\program files (x86)\microsoft visual studio 12.0\vc\include\eigen\src\core\arch\sse\packetmath.h
; File c:\program files (x86)\microsoft visual studio 12.0\vc\include\eigen\src\core\densestorage.h
; File c:\program files (x86)\microsoft visual studio 12.0\vc\include\eigen\src\core\arch\sse\packetmath.h
; File c:\program files (x86)\microsoft visual studio 12.0\vc\include\eigen\src\core\assign.h
; File c:\users\jumpei tono\documents\visual studio 2013\projects\fujii\tikhonov_nonlin2d_study\tikhonov2d.cpp
; File c:\program files (x86)\microsoft visual studio 12.0\vc\include\eigen\src\core\densestorage.h
